
MonsterTruck-BT-PS3.elf:     file format elf32-avr

Sections:
Idx Name          Size      VMA       LMA       File off  Algn
  0 .data         00000140  00800100  00003cda  00003d6e  2**0
                  CONTENTS, ALLOC, LOAD, DATA
  1 .text         00003cda  00000000  00000000  00000094  2**1
                  CONTENTS, ALLOC, LOAD, READONLY, CODE
  2 .bss          0000037d  00800240  00800240  00003eae  2**0
                  ALLOC
  3 .comment      00000030  00000000  00000000  00003eae  2**0
                  CONTENTS, READONLY
  4 .note.gnu.avr.deviceinfo 00000040  00000000  00000000  00003ee0  2**2
                  CONTENTS, READONLY
  5 .debug_aranges 00000500  00000000  00000000  00003f20  2**0
                  CONTENTS, READONLY, DEBUGGING
  6 .debug_info   00009516  00000000  00000000  00004420  2**0
                  CONTENTS, READONLY, DEBUGGING
  7 .debug_abbrev 00001d1e  00000000  00000000  0000d936  2**0
                  CONTENTS, READONLY, DEBUGGING
  8 .debug_line   00003c85  00000000  00000000  0000f654  2**0
                  CONTENTS, READONLY, DEBUGGING
  9 .debug_frame  00000f7c  00000000  00000000  000132dc  2**2
                  CONTENTS, READONLY, DEBUGGING
 10 .debug_str    0000245a  00000000  00000000  00014258  2**0
                  CONTENTS, READONLY, DEBUGGING
 11 .debug_loc    00005077  00000000  00000000  000166b2  2**0
                  CONTENTS, READONLY, DEBUGGING
 12 .debug_ranges 00000520  00000000  00000000  0001b729  2**0
                  CONTENTS, READONLY, DEBUGGING

Disassembly of section .text:

00000000 <__vectors>:
       0:	0c 94 5f 06 	jmp	0xcbe	; 0xcbe <__ctors_end>
       4:	0c 94 7c 06 	jmp	0xcf8	; 0xcf8 <__bad_interrupt>
       8:	0c 94 7c 06 	jmp	0xcf8	; 0xcf8 <__bad_interrupt>
       c:	0c 94 7c 06 	jmp	0xcf8	; 0xcf8 <__bad_interrupt>
      10:	0c 94 7c 06 	jmp	0xcf8	; 0xcf8 <__bad_interrupt>
      14:	0c 94 7c 06 	jmp	0xcf8	; 0xcf8 <__bad_interrupt>
      18:	0c 94 7e 06 	jmp	0xcfc	; 0xcfc <__vector_6>
      1c:	0c 94 7c 06 	jmp	0xcf8	; 0xcf8 <__bad_interrupt>
      20:	0c 94 7c 06 	jmp	0xcf8	; 0xcf8 <__bad_interrupt>
      24:	0c 94 7c 06 	jmp	0xcf8	; 0xcf8 <__bad_interrupt>
      28:	0c 94 7c 06 	jmp	0xcf8	; 0xcf8 <__bad_interrupt>
      2c:	0c 94 7c 06 	jmp	0xcf8	; 0xcf8 <__bad_interrupt>
      30:	0c 94 7c 06 	jmp	0xcf8	; 0xcf8 <__bad_interrupt>
      34:	0c 94 7c 06 	jmp	0xcf8	; 0xcf8 <__bad_interrupt>
      38:	0c 94 7c 06 	jmp	0xcf8	; 0xcf8 <__bad_interrupt>
      3c:	0c 94 7c 06 	jmp	0xcf8	; 0xcf8 <__bad_interrupt>
      40:	0c 94 7c 06 	jmp	0xcf8	; 0xcf8 <__bad_interrupt>
      44:	0c 94 7c 06 	jmp	0xcf8	; 0xcf8 <__bad_interrupt>
      48:	0c 94 d3 13 	jmp	0x27a6	; 0x27a6 <__vector_18>
      4c:	0c 94 7c 06 	jmp	0xcf8	; 0xcf8 <__bad_interrupt>
      50:	0c 94 7c 06 	jmp	0xcf8	; 0xcf8 <__bad_interrupt>
      54:	0c 94 7c 06 	jmp	0xcf8	; 0xcf8 <__bad_interrupt>
      58:	0c 94 7c 06 	jmp	0xcf8	; 0xcf8 <__bad_interrupt>
      5c:	0c 94 7c 06 	jmp	0xcf8	; 0xcf8 <__bad_interrupt>
      60:	0c 94 7c 06 	jmp	0xcf8	; 0xcf8 <__bad_interrupt>
      64:	0c 94 7c 06 	jmp	0xcf8	; 0xcf8 <__bad_interrupt>
      68:	0c 94 7c 06 	jmp	0xcf8	; 0xcf8 <__bad_interrupt>
      6c:	0c 94 7c 06 	jmp	0xcf8	; 0xcf8 <__bad_interrupt>
      70:	0c 94 7c 06 	jmp	0xcf8	; 0xcf8 <__bad_interrupt>
      74:	0c 94 a9 14 	jmp	0x2952	; 0x2952 <__vector_29>
      78:	0c 94 7c 06 	jmp	0xcf8	; 0xcf8 <__bad_interrupt>
      7c:	0c 94 7c 06 	jmp	0xcf8	; 0xcf8 <__bad_interrupt>
      80:	0c 94 7c 06 	jmp	0xcf8	; 0xcf8 <__bad_interrupt>
      84:	0c 94 7c 06 	jmp	0xcf8	; 0xcf8 <__bad_interrupt>
      88:	0c 94 7c 06 	jmp	0xcf8	; 0xcf8 <__bad_interrupt>
      8c:	0c 94 7c 06 	jmp	0xcf8	; 0xcf8 <__bad_interrupt>
      90:	0c 94 7c 06 	jmp	0xcf8	; 0xcf8 <__bad_interrupt>
      94:	0c 94 7c 06 	jmp	0xcf8	; 0xcf8 <__bad_interrupt>
      98:	0c 94 7c 06 	jmp	0xcf8	; 0xcf8 <__bad_interrupt>
      9c:	0c 94 7c 06 	jmp	0xcf8	; 0xcf8 <__bad_interrupt>
      a0:	0c 94 7c 06 	jmp	0xcf8	; 0xcf8 <__bad_interrupt>
      a4:	0c 94 e3 14 	jmp	0x29c6	; 0x29c6 <__vector_41>
      a8:	0c 94 7c 06 	jmp	0xcf8	; 0xcf8 <__bad_interrupt>
      ac:	0c 94 7c 06 	jmp	0xcf8	; 0xcf8 <__bad_interrupt>
      b0:	0c 94 7c 06 	jmp	0xcf8	; 0xcf8 <__bad_interrupt>
      b4:	f4 09       	sbc	r31, r4
      b6:	10 0a       	sbc	r1, r16
      b8:	dd 0a       	sbc	r13, r29
      ba:	3c 0b       	sbc	r19, r28
      bc:	10 0b       	sbc	r17, r16
      be:	e4 0b       	sbc	r30, r20
      c0:	1d 0b       	sbc	r17, r29
      c2:	51 0c       	add	r5, r1
      c4:	39 0c       	add	r3, r9
      c6:	84 0c       	add	r8, r4
      c8:	84 0c       	add	r8, r4
      ca:	57 0c       	add	r5, r7
      cc:	45 0c       	add	r4, r5
      ce:	ad 09       	sbc	r26, r13
      d0:	e4 09       	sbc	r30, r4
      d2:	84 0c       	add	r8, r4
      d4:	84 0c       	add	r8, r4
      d6:	1f 0c       	add	r1, r15
      d8:	19 0c       	add	r1, r9
      da:	84 0c       	add	r8, r4
      dc:	84 0c       	add	r8, r4
      de:	b4 0b       	sbc	r27, r20
      e0:	db 0b       	sbc	r29, r27
      e2:	4b 0c       	add	r4, r11
      e4:	2d 0c       	add	r2, r13
      e6:	33 0c       	add	r3, r3
      e8:	3f 0c       	add	r3, r15
      ea:	84 0c       	add	r8, r4
      ec:	6e 0c       	add	r6, r14
      ee:	84 0c       	add	r8, r4
      f0:	84 0c       	add	r8, r4
      f2:	25 0c       	add	r2, r5
      f4:	15 0d       	add	r17, r5
      f6:	31 0d       	add	r19, r1
      f8:	99 0d       	add	r25, r9
      fa:	ad 0d       	add	r26, r13
      fc:	d9 0d       	add	r29, r9
      fe:	f1 0d       	add	r31, r1
     100:	7e 0d       	add	r23, r14
     102:	08 0e       	add	r0, r24
     104:	2a 0e       	add	r2, r26
     106:	7a 0e       	add	r7, r26
     108:	9a 0e       	add	r9, r26
     10a:	c2 0e       	add	r12, r18
     10c:	dd 0e       	add	r13, r29
     10e:	f8 0e       	add	r15, r24
     110:	be 0f       	add	r27, r30
     112:	88 10       	cpse	r8, r8
     114:	41 10       	cpse	r4, r1
     116:	5b 10       	cpse	r5, r11
     118:	30 10       	cpse	r3, r0
     11a:	08 10       	cpse	r0, r8
     11c:	1d 10       	cpse	r1, r13
     11e:	88 10       	cpse	r8, r8
     120:	ab 0f       	add	r26, r27
     122:	f7 0f       	add	r31, r23

00000124 <__trampolines_end>:
     124:	0d 0a       	sbc	r0, r29
     126:	48 43       	sbci	r20, 0x38	; 56
     128:	49 20       	and	r4, r9
     12a:	44 69       	ori	r20, 0x94	; 148
     12c:	73 63       	ori	r23, 0x33	; 51
     12e:	6f 6e       	ori	r22, 0xEF	; 239
     130:	6e 65       	ori	r22, 0x5E	; 94
     132:	63 74       	andi	r22, 0x43	; 67
     134:	65 64       	ori	r22, 0x45	; 69
     136:	20 66       	ori	r18, 0x60	; 96
     138:	72 6f       	ori	r23, 0xF2	; 242
     13a:	6d 20       	and	r6, r13
     13c:	44 65       	ori	r20, 0x54	; 84
     13e:	76 69       	ori	r23, 0x96	; 150
     140:	63 65       	ori	r22, 0x53	; 83
	...

00000143 <_ZZN3BTD8HCI_taskEvE3__c_35>:
     143:	0d 0a 50 61 63 6b 65 74 20 74 79 70 65 20 63 68     ..Packet type ch
     153:	61 6e 67 65 64 00                                   anged.

00000159 <_ZZN3BTD8HCI_taskEvE3__c_34>:
     159:	0d 0a 52 65 63 65 69 76 65 64 20 52 65 6d 6f 74     ..Received Remot
     169:	65 20 4e 61 6d 65 00                                e Name.

00000170 <_ZZN3BTD8HCI_taskEvE3__c_33>:
     170:	0d 0a 52 65 63 65 69 76 65 64 20 52 65 6d 6f 74     ..Received Remot
     180:	65 20 56 65 72 73 69 6f 6e 00                       e Version.

0000018a <_ZZN3BTD8HCI_taskEvE3__c_32>:
     18a:	0d 0a 50 61 67 65 20 53 63 61 6e 20 52 65 70 65     ..Page Scan Repe
     19a:	74 69 74 69 6f 6e 20 4d 6f 64 65 20 43 68 61 6e     tition Mode Chan
     1aa:	67 65 20 45 76 65 6e 74 00                          ge Event.

000001b3 <_ZZN3BTD8HCI_taskEvE3__c_31>:
     1b3:	3a 00                                               :.

000001b5 <_ZZN3BTD8HCI_taskEvE3__c_30>:
     1b5:	0d 0a 43 6f 6e 6e 65 63 74 65 64 20 74 6f 20 44     ..Connected to D
     1c5:	65 76 69 63 65 3a 20 00                             evice: .

000001cd <_ZZN3BTD8HCI_taskEvE3__c_29>:
     1cd:	0d 0a 57 72 69 74 65 20 61 75 74 68 65 6e 74 69     ..Write authenti
     1dd:	63 61 74 69 6f 6e 20 45 6e 61 62 6c 65 64 00        cation Enabled.

000001ec <_ZZN3BTD8HCI_taskEvE3__c_28>:
     1ec:	0d 0a 50 53 34 20 63 6f 6e 74 72 6f 6c 6c 65 72     ..PS4 controller
     1fc:	20 69 73 20 63 6f 6e 6e 65 63 74 69 6e 67 00         is connecting.

0000020b <_ZZN3BTD8HCI_taskEvE3__c_27>:
     20b:	20 2d 20 57 69 69 20 42 61 6c 61 6e 63 65 20 42      - Wii Balance B
     21b:	6f 61 72 64 00                                      oard.

00000220 <_ZZN3BTD8HCI_taskEvE3__c_26>:
     220:	20 2d 20 57 69 69 20 55 20 50 72 6f 20 43 6f 6e      - Wii U Pro Con
     230:	74 72 6f 6c 6c 65 72 00                             troller.

00000238 <_ZZN3BTD8HCI_taskEvE3__c_25>:
     238:	20 77 69 74 68 20 4d 6f 74 69 6f 6e 20 50 6c 75      with Motion Plu
     248:	73 20 49 6e 73 69 64 65 00                          s Inside.

00000251 <_ZZN3BTD8HCI_taskEvE3__c_24>:
     251:	0d 0a 57 69 69 6d 6f 74 65 20 69 73 20 63 6f 6e     ..Wiimote is con
     261:	6e 65 63 74 69 6e 67 00                             necting.

00000269 <_ZZN3BTD8HCI_taskEvE3__c_23>:
     269:	0d 0a 52 65 6d 6f 74 65 20 4e 61 6d 65 3a 20 00     ..Remote Name: .

00000279 <_ZZN3BTD8HCI_taskEvE3__c_22>:
     279:	0d 0a 49 6e 63 6f 6d 69 6e 67 20 43 6f 6e 6e 65     ..Incoming Conne
     289:	63 74 69 6f 6e 20 52 65 71 75 65 73 74 00           ction Request.

00000297 <_ZZN3BTD8HCI_taskEvE3__c_21>:
     297:	0d 0a 57 61 69 74 20 46 6f 72 20 49 6e 63 6f 6d     ..Wait For Incom
     2a7:	69 6e 67 20 43 6f 6e 6e 65 63 74 69 6f 6e 20 52     ing Connection R
     2b7:	65 71 75 65 73 74 00                                equest.

000002be <_ZZN3BTD8HCI_taskEvE3__c_20>:
     2be:	0d 0a 54 72 79 69 6e 67 20 74 6f 20 63 6f 6e 6e     ..Trying to conn
     2ce:	65 63 74 20 6f 6e 65 20 6d 6f 72 65 20 74 69 6d     ect one more tim
     2de:	65 2e 2e 2e 00                                      e....

000002e3 <_ZZN3BTD8HCI_taskEvE3__c_19>:
     2e3:	0d 0a 43 6f 6e 6e 65 63 74 65 64 20 74 6f 20 48     ..Connected to H
     2f3:	49 44 20 64 65 76 69 63 65 00                       ID device.

000002fd <_ZZN3BTD8HCI_taskEvE3__c_18>:
     2fd:	0d 0a 43 6f 6e 6e 65 63 74 65 64 20 74 6f 20 57     ..Connected to W
     30d:	69 69 6d 6f 74 65 00                                iimote.

00000314 <_ZZN3BTD8HCI_taskEvE3__c_17>:
     314:	0d 0a 43 6f 6e 6e 65 63 74 69 6e 67 20 74 6f 20     ..Connecting to 
     324:	48 49 44 20 64 65 76 69 63 65 00                    HID device.

0000032f <_ZZN3BTD8HCI_taskEvE3__c_16>:
     32f:	0d 0a 43 6f 6e 6e 65 63 74 69 6e 67 20 74 6f 20     ..Connecting to 
     33f:	57 69 69 6d 6f 74 65 00                             Wiimote.

00000347 <_ZZN3BTD8HCI_taskEvE3__c_15>:
     347:	64 65 76 69 63 65 00                                device.

0000034e <_ZZN3BTD8HCI_taskEvE3__c_14>:
     34e:	57 69 69 6d 6f 74 65 00                             Wiimote.

00000356 <_ZZN3BTD8HCI_taskEvE3__c_13>:
     356:	0d 0a 41 6e 64 20 74 68 65 6e 20 70 72 65 73 73     ..And then press
     366:	20 61 6e 79 20 62 75 74 74 6f 6e 20 6f 6e 20 74      any button on t
     376:	68 65 20 00                                         he .

0000037a <_ZZN3BTD8HCI_taskEvE3__c_12>:
     37a:	0d 0a 42 54 48 49 44 20 62 74 68 69 64 28 26 42     ..BTHID bthid(&B
     38a:	74 64 29 3b 00                                      td);.

0000038f <_ZZN3BTD8HCI_taskEvE3__c_11>:
     38f:	0d 0a 57 49 49 20 57 69 69 28 26 42 74 64 29 3b     ..WII Wii(&Btd);
	...

000003a0 <_ZZN3BTD8HCI_taskEvE3__c_10>:
     3a0:	0d 0a 4e 6f 77 20 6a 75 73 74 20 63 72 65 61 74     ..Now just creat
     3b0:	65 20 74 68 65 20 69 6e 73 74 61 6e 63 65 20 6c     e the instance l
     3c0:	69 6b 65 20 73 6f 3a 00                             ike so:.

000003c8 <_ZZN3BTD8HCI_taskEvE3__c_9>:
     3c8:	0d 0a 48 49 44 20 64 65 76 69 63 65 20 66 6f 75     ..HID device fou
     3d8:	6e 64 00                                            nd.

000003db <_ZZN3BTD8HCI_taskEvE3__c_8>:
     3db:	0d 0a 57 69 69 6d 6f 74 65 20 66 6f 75 6e 64 00     ..Wiimote found.

000003eb <_ZZN3BTD8HCI_taskEvE3__c_7>:
     3eb:	0d 0a 50 6c 65 61 73 65 20 65 6e 61 62 6c 65 20     ..Please enable 
     3fb:	64 69 73 63 6f 76 65 72 79 20 6f 66 20 79 6f 75     discovery of you
     40b:	72 20 64 65 76 69 63 65 00                          r device.

00000414 <_ZZN3BTD8HCI_taskEvE3__c_6>:
     414:	0d 0a 53 74 61 72 74 69 6e 67 20 69 6e 71 75 69     ..Starting inqui
     424:	72 79 0d 0a 50 72 65 73 73 20 31 20 26 20 32 20     ry..Press 1 & 2 
     434:	6f 6e 20 74 68 65 20 57 69 69 6d 6f 74 65 0d 0a     on the Wiimote..
     444:	4f 72 20 70 72 65 73 73 20 74 68 65 20 53 59 4e     Or press the SYN
     454:	43 20 62 75 74 74 6f 6e 20 69 66 20 79 6f 75 20     C button if you 
     464:	61 72 65 20 75 73 69 6e 67 20 61 20 57 69 69 20     are using a Wii 
     474:	55 20 50 72 6f 20 43 6f 6e 74 72 6f 6c 6c 65 72     U Pro Controller
     484:	20 6f 72 20 61 20 57 69 69 20 42 61 6c 61 6e 63      or a Wii Balanc
     494:	65 20 42 6f 61 72 64 00                             e Board.

0000049c <_ZZN3BTD8HCI_taskEvE3__c_5>:
     49c:	0d 0a 54 68 65 20 6e 61 6d 65 20 69 73 20 73 65     ..The name is se
     4ac:	74 20 74 6f 3a 20 00                                t to: .

000004b3 <_ZZN3BTD8HCI_taskEvE3__c_4>:
     4b3:	3a 00                                               :.

000004b5 <_ZZN3BTD8HCI_taskEvE3__c_3>:
     4b5:	0d 0a 4c 6f 63 61 6c 20 42 6c 75 65 74 6f 6f 74     ..Local Bluetoot
     4c5:	68 20 41 64 64 72 65 73 73 3a 20 00                 h Address: .

000004d1 <_ZZN3BTD8HCI_taskEvE3__c_2>:
     4d1:	0d 0a 57 72 69 74 65 20 63 6c 61 73 73 20 6f 66     ..Write class of
     4e1:	20 64 65 76 69 63 65 00                              device.

000004e9 <_ZZN3BTD8HCI_taskEvE3__c_1>:
     4e9:	0d 0a 57 72 69 74 65 20 61 63 63 65 73 73 20 65     ..Write access e
     4f9:	6e 61 62 6c 65 64 00                                nabled.

00000500 <_ZZN3BTD8HCI_taskEvE3__c_0>:
     500:	0d 0a 4e 6f 20 72 65 73 70 6f 6e 73 65 20 74 6f     ..No response to
     510:	20 48 43 49 20 52 65 73 65 74 00                     HCI Reset.

0000051b <_ZZN3BTD8HCI_taskEvE3__c>:
     51b:	0d 0a 48 43 49 20 52 65 73 65 74 20 63 6f 6d 70     ..HCI Reset comp
     52b:	6c 65 74 65 00                                      lete.

00000530 <_ZZN3BTD14HCI_event_taskEvE3__c_37>:
     530:	0d 0a 55 6e 6d 61 6e 61 67 65 64 20 48 43 49 20     ..Unmanaged HCI 
     540:	45 76 65 6e 74 3a 20 00                             Event: .

00000548 <_ZZN3BTD14HCI_event_taskEvE3__c_36>:
     548:	0d 0a 43 68 61 6e 67 65 20 50 61 63 6b 65 74 20     ..Change Packet 
     558:	74 79 70 65 20 66 61 69 6c 65 64 00                 type failed.

00000564 <_ZZN3BTD14HCI_event_taskEvE3__c_35>:
     564:	0d 0a 43 68 61 6e 67 65 20 50 61 63 6b 65 74 20     ..Change Packet 
     574:	74 79 70 65 20 73 75 63 63 65 73 73 66 75 6c 00     type successful.

00000584 <_ZZN3BTD14HCI_event_taskEvE3__c_34>:
     584:	0d 0a 52 65 61 64 20 72 65 6d 6f 74 65 20 76 65     ..Read remote ve
     594:	72 73 69 6f 6e 20 66 61 69 6c 65 64 00              rsion failed.

000005a1 <_ZZN3BTD14HCI_event_taskEvE3__c_33>:
     5a1:	0d 0a 52 65 61 64 20 72 65 6d 6f 74 65 20 76 65     ..Read remote ve
     5b1:	72 73 69 6f 6e 20 63 6f 6d 70 6c 65 74 65 00        rsion complete.

000005c0 <_ZZN3BTD14HCI_event_taskEvE3__c_32>:
     5c0:	0d 0a 45 6e 63 72 79 70 74 69 6f 6e 20 43 68 61     ..Encryption Cha
     5d0:	6e 67 65 20 45 76 65 6e 74 00                       nge Event.

000005da <_ZZN3BTD14HCI_event_taskEvE3__c_31>:
     5da:	0d 0a 4c 69 6e 6b 20 6b 65 79 20 6e 6f 74 69 66     ..Link key notif
     5ea:	69 63 61 74 69 6f 6e 20 65 76 65 6e 74 00           ication event.

000005f8 <_ZZN3BTD14HCI_event_taskEvE3__c_30>:
     5f8:	0d 0a 51 4f 53 20 53 65 74 75 70 20 43 6f 6d 70     ..QOS Setup Comp
     608:	6c 65 74 65 20 45 76 65 6e 74 00                    lete Event.

00000613 <_ZZN3BTD14HCI_event_taskEvE3__c_29>:
     613:	0d 0a 4d 61 78 20 73 6c 6f 74 73 20 63 68 61 6e     ..Max slots chan
     623:	67 65 64 20 65 76 65 6e 74 00                       ged event.

0000062d <_ZZN3BTD14HCI_event_taskEvE3__c_28>:
     62d:	0d 0a 43 68 61 6e 67 65 20 43 6f 6e 6e 65 63 74     ..Change Connect
     63d:	69 6f 6e 20 4c 69 6e 6b 20 45 76 65 6e 74 00        ion Link Event.

0000064c <_ZZN3BTD14HCI_event_taskEvE3__c_27>:
     64c:	0d 0a 44 61 74 61 20 42 75 66 66 65 72 20 4f 76     ..Data Buffer Ov
     65c:	65 72 66 6c 6f 77 20 45 76 65 6e 74 00              erflow Event.

00000669 <_ZZN3BTD14HCI_event_taskEvE3__c_26>:
     669:	0d 0a 4c 6f 6f 70 42 61 63 6b 20 43 6f 6d 6d 61     ..LoopBack Comma
     679:	6e 64 00                                            nd.

0000067c <_ZZN3BTD14HCI_event_taskEvE3__c_25>:
     67c:	0d 0a 52 6f 6c 65 20 43 68 61 6e 67 65 64 00        ..Role Changed.

0000068b <_ZZN3BTD14HCI_event_taskEvE3__c_24>:
     68b:	0d 0a 4e 75 6d 20 43 6f 6d 70 6c 65 74 65 20 50     ..Num Complete P
     69b:	61 63 6b 65 74 00                                   acket.

000006a1 <_ZZN3BTD14HCI_event_taskEvE3__c_23>:
     6a1:	0d 0a 50 61 69 72 69 6e 67 20 46 61 69 6c 65 64     ..Pairing Failed
     6b1:	3a 20 00                                            : .

000006b4 <_ZZN3BTD14HCI_event_taskEvE3__c_22>:
     6b4:	0d 0a 50 61 69 72 69 6e 67 20 73 75 63 63 65 73     ..Pairing succes
     6c4:	73 66 75 6c 20 77 69 74 68 20 48 49 44 20 64 65     sful with HID de
     6d4:	76 69 63 65 00                                      vice.

000006d9 <_ZZN3BTD14HCI_event_taskEvE3__c_21>:
     6d9:	0d 0a 50 61 69 72 69 6e 67 20 73 75 63 63 65 73     ..Pairing succes
     6e9:	73 66 75 6c 20 77 69 74 68 20 57 69 69 6d 6f 74     sful with Wiimot
     6f9:	65 00                                               e.

000006fb <_ZZN3BTD14HCI_event_taskEvE3__c_20>:
     6fb:	0d 0a 52 65 63 65 69 76 65 64 20 4b 65 79 20 52     ..Received Key R
     70b:	65 71 75 65 73 74 00                                equest.

00000712 <_ZZN3BTD14HCI_event_taskEvE3__c_19>:
     712:	0d 0a 4e 6f 20 70 69 6e 20 77 61 73 20 73 65 74     ..No pin was set
	...

00000723 <_ZZN3BTD14HCI_event_taskEvE3__c_18>:
     723:	0d 0a 42 6c 75 65 74 6f 6f 74 68 20 70 69 6e 20     ..Bluetooth pin 
     733:	69 73 20 73 65 74 20 74 6f 6f 3a 20 00              is set too: .

00000740 <_ZZN3BTD14HCI_event_taskEvE3__c_17>:
     740:	0d 0a 50 61 69 72 69 6e 67 20 77 69 74 68 20 57     ..Pairing with W
     750:	69 69 6d 6f 74 65 00                                iimote.

00000757 <_ZZN3BTD14HCI_event_taskEvE3__c_16>:
     757:	20 00                                                .

00000759 <_ZZN3BTD14HCI_event_taskEvE3__c_15>:
     759:	20 00                                                .

0000075b <_ZZN3BTD14HCI_event_taskEvE3__c_14>:
     75b:	0d 0a 43 6c 61 73 73 20 6f 66 20 64 65 76 69 63     ..Class of devic
     76b:	65 3a 20 00                                         e: .

0000076f <_ZZN3BTD14HCI_event_taskEvE3__c_13>:
     76f:	0d 0a 47 61 6d 65 70 61 64 20 69 73 20 63 6f 6e     ..Gamepad is con
     77f:	6e 65 63 74 69 6e 67 00                             necting.

00000787 <_ZZN3BTD14HCI_event_taskEvE3__c_12>:
     787:	0d 0a 4b 65 79 62 6f 61 72 64 20 69 73 20 63 6f     ..Keyboard is co
     797:	6e 6e 65 63 74 69 6e 67 00                          nnecting.

000007a0 <_ZZN3BTD14HCI_event_taskEvE3__c_11>:
     7a0:	0d 0a 4d 6f 75 73 65 20 69 73 20 63 6f 6e 6e 65     ..Mouse is conne
     7b0:	63 74 69 6e 67 00                                   cting.

000007b6 <_ZZN3BTD14HCI_event_taskEvE3__c_10>:
     7b6:	0d 0a 43 6f 6e 6e 65 63 74 69 6f 6e 20 46 61 69     ..Connection Fai
     7c6:	6c 65 64 3a 20 00                                   led: .

000007cc <_ZZN3BTD14HCI_event_taskEvE3__c_9>:
     7cc:	0d 0a 43 6f 6e 6e 65 63 74 69 6f 6e 20 65 73 74     ..Connection est
     7dc:	61 62 6c 69 73 68 65 64 00                          ablished.

000007e5 <_ZZN3BTD14HCI_event_taskEvE3__c_8>:
     7e5:	0d 0a 47 61 6d 65 70 61 64 20 66 6f 75 6e 64 00     ..Gamepad found.

000007f5 <_ZZN3BTD14HCI_event_taskEvE3__c_7>:
     7f5:	0d 0a 4b 65 79 62 6f 61 72 64 20 66 6f 75 6e 64     ..Keyboard found
	...

00000806 <_ZZN3BTD14HCI_event_taskEvE3__c_6>:
     806:	0d 0a 4d 6f 75 73 65 20 66 6f 75 6e 64 00           ..Mouse found.

00000814 <_ZZN3BTD14HCI_event_taskEvE3__c_5>:
     814:	20 00                                                .

00000816 <_ZZN3BTD14HCI_event_taskEvE3__c_4>:
     816:	20 00                                                .

00000818 <_ZZN3BTD14HCI_event_taskEvE3__c_3>:
     818:	0d 0a 43 6c 61 73 73 20 6f 66 20 64 65 76 69 63     ..Class of devic
     828:	65 3a 20 00                                         e: .

0000082c <_ZZN3BTD14HCI_event_taskEvE3__c_2>:
     82c:	0d 0a 4e 75 6d 62 65 72 20 6f 66 20 72 65 73 70     ..Number of resp
     83c:	6f 6e 73 65 73 3a 20 00                             onses: .

00000844 <_ZZN3BTD14HCI_event_taskEvE3__c_1>:
     844:	0d 0a 43 6f 75 6c 64 6e 27 74 20 66 69 6e 64 20     ..Couldn't find 
     854:	48 49 44 20 64 65 76 69 63 65 00                    HID device.

0000085f <_ZZN3BTD14HCI_event_taskEvE3__c_0>:
     85f:	0d 0a 43 6f 75 6c 64 6e 27 74 20 66 69 6e 64 20     ..Couldn't find 
     86f:	57 69 69 6d 6f 74 65 00                             Wiimote.

00000877 <_ZZN3BTD14HCI_event_taskEvE3__c>:
     877:	0d 0a 48 43 49 20 43 6f 6d 6d 61 6e 64 20 46 61     ..HCI Command Fa
     887:	69 6c 65 64 3a 20 00                                iled: .

0000088e <_ZL10FadeLookUp>:
	...
     896:	01 01 01 01 01 01 01 01 01 01 01 01 01 01 01 02     ................
     8a6:	02 02 02 02 02 02 02 02 03 03 03 03 03 03 04 04     ................
     8b6:	04 04 04 05 05 05 05 06 06 06 07 07 07 08 08 08     ................
     8c6:	09 09 0a 0a 0b 0b 0c 0c 0d 0d 0e 0f 0f 10 11 11     ................
     8d6:	12 13 14 15 16 17 18 19 1a 1b 1c 1d 1f 20 21 23     ............. !#
     8e6:	24 26 27 29 2b 2c 2e 30 32 34 36 38 3a 3c 3e 40     $&')+,.02468:<>@
     8f6:	43 45 47 4a 4c 4f 51 54 57 59 5c 5f 62 64 67 6a     CEGJLOQTWY\_bdgj
     906:	6d 70 73 76 79 7c 7f 82 85 88 8b 8e 91 94 97 9a     mpsvy|..........
     916:	9c 9f a2 a5 a7 aa ad af b2 b4 b7 b9 bb be c0 c2     ................
     926:	c4 c6 c8 ca cc ce d0 d2 d3 d5 d7 d8 da db dd de     ................
     936:	df e1 e2 e3 e4 e5 e6 e7 e8 e9 ea eb ec ed ed ee     ................
     946:	ef ef f0 f1 f1 f2 f2 f3 f3 f4 f4 f5 f5 f6 f6 f6     ................
     956:	f7 f7 f7 f8 f8 f8 f9 f9 f9 f9 fa fa fa fa fa fb     ................
     966:	fb fb fb fb fb fc fc fc fc fc fc fc fc fc fd fd     ................
     976:	fd fd fd fd fd fd fd fd fd fd fd fd fd fe fe fe     ................
     986:	fe fe fe fe ff ff                                   ......

0000098c <_ZZ4mainE3__c>:
     98c:	50 53 20 42 75 74 74 6f 6e 00                       PS Button.

00000996 <_ZZN5PS3BT3RunEvE3__c_1>:
     996:	0d 0a 4d 6f 74 69 6f 6e 20 43 6f 6e 74 72 6f 6c     ..Motion Control
     9a6:	6c 65 72 20 45 6e 61 62 6c 65 64 0d 0a 00           ler Enabled...

000009b4 <_ZZN5PS3BT3RunEvE3__c_0>:
     9b4:	0d 0a 4e 61 76 69 67 61 74 69 6f 6e 20 43 6f 6e     ..Navigation Con
     9c4:	74 72 6f 6c 6c 65 72 20 45 6e 61 62 6c 65 64 0d     troller Enabled.
     9d4:	0a 00                                               ..

000009d6 <_ZZN5PS3BT3RunEvE3__c>:
     9d6:	0d 0a 44 75 61 6c 73 68 6f 63 6b 20 33 20 43 6f     ..Dualshock 3 Co
     9e6:	6e 74 72 6f 6c 6c 65 72 20 45 6e 61 62 6c 65 64     ntroller Enabled
     9f6:	0d 0a 00                                            ...

000009f9 <_ZZN5PS3BT10L2CAP_taskEvE3__c_4>:
     9f9:	0d 0a 44 69 73 63 6f 6e 6e 65 63 74 65 64 20 43     ..Disconnected C
     a09:	6f 6e 74 72 6f 6c 20 43 68 61 6e 6e 65 6c 00        ontrol Channel.

00000a18 <_ZZN5PS3BT10L2CAP_taskEvE3__c_3>:
     a18:	0d 0a 44 69 73 63 6f 6e 6e 65 63 74 65 64 20 49     ..Disconnected I
     a28:	6e 74 65 72 72 75 70 74 20 43 68 61 6e 6e 65 6c     nterrupt Channel
	...

00000a39 <_ZZN5PS3BT10L2CAP_taskEvE3__c_2>:
     a39:	0d 0a 48 49 44 20 49 6e 74 65 72 72 75 70 74 20     ..HID Interrupt 
     a49:	53 75 63 63 65 73 73 66 75 6c 6c 79 20 43 6f 6e     Successfully Con
     a59:	66 69 67 75 72 65 64 00                             figured.

00000a61 <_ZZN5PS3BT10L2CAP_taskEvE3__c_1>:
     a61:	0d 0a 48 49 44 20 49 6e 74 65 72 72 75 70 74 20     ..HID Interrupt 
     a71:	49 6e 63 6f 6d 69 6e 67 20 43 6f 6e 6e 65 63 74     Incoming Connect
     a81:	69 6f 6e 20 52 65 71 75 65 73 74 00                 ion Request.

00000a8d <_ZZN5PS3BT10L2CAP_taskEvE3__c_0>:
     a8d:	0d 0a 48 49 44 20 43 6f 6e 74 72 6f 6c 20 53 75     ..HID Control Su
     a9d:	63 63 65 73 73 66 75 6c 6c 79 20 43 6f 6e 66 69     ccessfully Confi
     aad:	67 75 72 65 64 00                                   gured.

00000ab3 <_ZZN5PS3BT10L2CAP_taskEvE3__c>:
     ab3:	0d 0a 48 49 44 20 43 6f 6e 74 72 6f 6c 20 49 6e     ..HID Control In
     ac3:	63 6f 6d 69 6e 67 20 43 6f 6e 6e 65 63 74 69 6f     coming Connectio
     ad3:	6e 20 52 65 71 75 65 73 74 00                       n Request.

00000add <_ZZN5PS3BT7ACLDataEPhE3__c_11>:
     add:	0d 0a 4c 32 43 41 50 20 49 6e 74 65 72 72 75 70     ..L2CAP Interrup
     aed:	74 00                                               t.

00000aef <_ZZN5PS3BT7ACLDataEPhE3__c_10>:
     aef:	0d 0a 4c 32 43 41 50 20 55 6e 6b 6e 6f 77 6e 20     ..L2CAP Unknown 
     aff:	53 69 67 6e 61 6c 69 6e 67 20 43 6f 6d 6d 61 6e     Signaling Comman
     b0f:	64 3a 20 00                                         d: .

00000b13 <_ZZN5PS3BT7ACLDataEPhE3__c_9>:
     b13:	0d 0a 44 69 73 63 6f 6e 6e 65 63 74 20 52 65 73     ..Disconnect Res
     b23:	70 6f 6e 73 65 3a 20 49 6e 74 65 72 72 75 70 74     ponse: Interrupt
     b33:	20 43 68 61 6e 6e 65 6c 00                           Channel.

00000b3c <_ZZN5PS3BT7ACLDataEPhE3__c_8>:
     b3c:	0d 0a 44 69 73 63 6f 6e 6e 65 63 74 20 52 65 73     ..Disconnect Res
     b4c:	70 6f 6e 73 65 3a 20 43 6f 6e 74 72 6f 6c 20 43     ponse: Control C
     b5c:	68 61 6e 6e 65 6c 00                                hannel.

00000b63 <_ZZN5PS3BT7ACLDataEPhE3__c_7>:
     b63:	0d 0a 48 49 44 20 49 6e 74 65 72 72 75 70 74 20     ..HID Interrupt 
     b73:	43 6f 6e 66 69 67 75 72 61 74 69 6f 6e 20 52 65     Configuration Re
     b83:	71 75 65 73 74 00                                   quest.

00000b89 <_ZZN5PS3BT7ACLDataEPhE3__c_6>:
     b89:	0d 0a 48 49 44 20 43 6f 6e 74 72 6f 6c 20 43 6f     ..HID Control Co
     b99:	6e 66 69 67 75 72 61 74 69 6f 6e 20 52 65 71 75     nfiguration Requ
     ba9:	65 73 74 00                                         est.

00000bad <_ZZN5PS3BT7ACLDataEPhE3__c_5>:
     bad:	0d 0a 48 49 44 20 49 6e 74 65 72 72 75 70 74 20     ..HID Interrupt 
     bbd:	43 6f 6e 66 69 67 75 72 61 74 69 6f 6e 20 43 6f     Configuration Co
     bcd:	6d 70 6c 65 74 65 00                                mplete.

00000bd4 <_ZZN5PS3BT7ACLDataEPhE3__c_4>:
     bd4:	0d 0a 48 49 44 20 43 6f 6e 74 72 6f 6c 20 43 6f     ..HID Control Co
     be4:	6e 66 69 67 75 72 61 74 69 6f 6e 20 43 6f 6d 70     nfiguration Comp
     bf4:	6c 65 74 65 00                                      lete.

00000bf9 <_ZZN5PS3BT7ACLDataEPhE3__c_3>:
     bf9:	20 49 64 65 6e 74 69 66 69 65 72 3a 20 00            Identifier: .

00000c07 <_ZZN5PS3BT7ACLDataEPhE3__c_2>:
     c07:	20 00                                                .

00000c09 <_ZZN5PS3BT7ACLDataEPhE3__c_1>:
     c09:	20 53 43 49 44 3a 20 00                              SCID: .

00000c11 <_ZZN5PS3BT7ACLDataEPhE3__c_0>:
     c11:	20 00                                                .

00000c13 <_ZZN5PS3BT7ACLDataEPhE3__c>:
     c13:	0d 0a 4c 32 43 41 50 20 43 6f 6e 6e 65 63 74 69     ..L2CAP Connecti
     c23:	6f 6e 20 52 65 71 75 65 73 74 20 2d 20 50 53 4d     on Request - PSM
     c33:	3a 20 00                                            : .

00000c36 <_ZL11PS3_BUTTONS>:
     c36:	10 00 00 00 20 00 00 00 40 00 00 00 80 00 00 00     .... ...@.......
     c46:	01 00 00 00 08 00 00 00 02 00 00 00 04 00 00 00     ................
     c56:	00 01 00 00 00 02 00 00 00 04 00 00 00 08 00 00     ................
     c66:	00 10 00 00 00 20 00 00 00 40 00 00 00 80 00 00     ..... ...@......
     c76:	00 00 01 00 00 00 08 00 00 00 10 00                 ............

00000c82 <_ZL8PS3_LEDS>:
     c82:	00 01 02 04 08 09 0a 0c 0d 0e 0f                    ...........

00000c8d <_ZL17PS3_REPORT_BUFFER>:
	...
     c95:	00 00 ff 27 10 00 32 ff 27 10 00 32 ff 27 10 00     ...'..2.'..2.'..
     ca5:	32 ff 27 10 00 32 00 00 00 00 00 00 00 00 00 00     2.'..2..........
	...

00000cbe <__ctors_end>:
     cbe:	11 24       	eor	r1, r1
     cc0:	1f be       	out	0x3f, r1	; 63
     cc2:	cf ef       	ldi	r28, 0xFF	; 255
     cc4:	d8 e0       	ldi	r29, 0x08	; 8
     cc6:	de bf       	out	0x3e, r29	; 62
     cc8:	cd bf       	out	0x3d, r28	; 61

00000cca <__do_copy_data>:
     cca:	12 e0       	ldi	r17, 0x02	; 2
     ccc:	a0 e0       	ldi	r26, 0x00	; 0
     cce:	b1 e0       	ldi	r27, 0x01	; 1
     cd0:	ea ed       	ldi	r30, 0xDA	; 218
     cd2:	fc e3       	ldi	r31, 0x3C	; 60
     cd4:	02 c0       	rjmp	.+4      	; 0xcda <__do_copy_data+0x10>
     cd6:	05 90       	lpm	r0, Z+
     cd8:	0d 92       	st	X+, r0
     cda:	a0 34       	cpi	r26, 0x40	; 64
     cdc:	b1 07       	cpc	r27, r17
     cde:	d9 f7       	brne	.-10     	; 0xcd6 <__do_copy_data+0xc>

00000ce0 <__do_clear_bss>:
     ce0:	25 e0       	ldi	r18, 0x05	; 5
     ce2:	a0 e4       	ldi	r26, 0x40	; 64
     ce4:	b2 e0       	ldi	r27, 0x02	; 2
     ce6:	01 c0       	rjmp	.+2      	; 0xcea <.do_clear_bss_start>

00000ce8 <.do_clear_bss_loop>:
     ce8:	1d 92       	st	X+, r1

00000cea <.do_clear_bss_start>:
     cea:	ad 3b       	cpi	r26, 0xBD	; 189
     cec:	b2 07       	cpc	r27, r18
     cee:	e1 f7       	brne	.-8      	; 0xce8 <.do_clear_bss_loop>
     cf0:	0e 94 82 15 	call	0x2b04	; 0x2b04 <main>
     cf4:	0c 94 6b 1e 	jmp	0x3cd6	; 0x3cd6 <_exit>

00000cf8 <__bad_interrupt>:
     cf8:	0c 94 00 00 	jmp	0	; 0x0 <__vectors>

00000cfc <__vector_6>:
	set_sleep_mode(SLEEP_MODE_PWR_DOWN);
	sleep_enable();
	sleep_mode();
}

ISR(WDT_vect){
     cfc:	1f 92       	push	r1
     cfe:	0f 92       	push	r0
     d00:	0f b6       	in	r0, 0x3f	; 63
     d02:	0f 92       	push	r0
     d04:	11 24       	eor	r1, r1
     d06:	8f 93       	push	r24
	MCUSR &= ~(1 << SE);
     d08:	84 b7       	in	r24, 0x34	; 52
     d0a:	8e 7f       	andi	r24, 0xFE	; 254
     d0c:	84 bf       	out	0x34, r24	; 52
}
     d0e:	8f 91       	pop	r24
     d10:	0f 90       	pop	r0
     d12:	0f be       	out	0x3f, r0	; 63
     d14:	0f 90       	pop	r0
     d16:	1f 90       	pop	r1
     d18:	18 95       	reti

00000d1a <_ZN3BTDC1Ev>:
        l2capoutbuf[5] = (uint8_t)(psm >> 8);
        l2capoutbuf[6] = scid[0]; // Source CID
        l2capoutbuf[7] = scid[1];

        L2CAP_Command(handle, l2capoutbuf, 8);
}
     d1a:	fc 01       	movw	r30, r24
     d1c:	85 e0       	ldi	r24, 0x05	; 5
     d1e:	91 e0       	ldi	r25, 0x01	; 1
     d20:	95 83       	std	Z+5, r25	; 0x05
     d22:	84 83       	std	Z+4, r24	; 0x04
     d24:	8a e0       	ldi	r24, 0x0A	; 10
     d26:	91 e0       	ldi	r25, 0x01	; 1
     d28:	97 83       	std	Z+7, r25	; 0x07
     d2a:	86 83       	std	Z+6, r24	; 0x06
     d2c:	15 aa       	std	Z+53, r1	; 0x35
     d2e:	17 aa       	std	Z+55, r1	; 0x37
     d30:	12 ae       	std	Z+58, r1	; 0x3a
     d32:	14 ae       	std	Z+60, r1	; 0x3c
     d34:	15 ae       	std	Z+61, r1	; 0x3d
     d36:	df 01       	movw	r26, r30
     d38:	de 96       	adiw	r26, 0x3e	; 62
     d3a:	1d 92       	st	X+, r1
     d3c:	1d 92       	st	X+, r1
     d3e:	1d 92       	st	X+, r1
     d40:	1c 92       	st	X, r1
     d42:	13 97       	sbiw	r26, 0x03	; 3
     d44:	1a 96       	adiw	r26, 0x0a	; 10
     d46:	1c 92       	st	X, r1
     d48:	11 96       	adiw	r26, 0x01	; 1
     d4a:	81 e0       	ldi	r24, 0x01	; 1
     d4c:	8c 93       	st	X, r24
     d4e:	1a 96       	adiw	r26, 0x0a	; 10
     d50:	1d 92       	st	X+, r1
     d52:	1c 92       	st	X, r1
     d54:	ee 5b       	subi	r30, 0xBE	; 190
     d56:	ff 4f       	sbci	r31, 0xFF	; 255
     d58:	11 82       	std	Z+1, r1	; 0x01
     d5a:	10 82       	st	Z, r1
     d5c:	08 95       	ret

00000d5e <_ZN3BTD10InitializeEv>:
     d5e:	cf 93       	push	r28
     d60:	df 93       	push	r29
     d62:	ec 01       	movw	r28, r24
     d64:	fc 01       	movw	r30, r24
     d66:	ee 5b       	subi	r30, 0xBE	; 190
     d68:	ff 4f       	sbci	r31, 0xFF	; 255
     d6a:	80 81       	ld	r24, Z
     d6c:	91 81       	ldd	r25, Z+1	; 0x01
     d6e:	dc 01       	movw	r26, r24
     d70:	ed 91       	ld	r30, X+
     d72:	fc 91       	ld	r31, X
     d74:	04 80       	ldd	r0, Z+4	; 0x04
     d76:	f5 81       	ldd	r31, Z+5	; 0x05
     d78:	e0 2d       	mov	r30, r0
     d7a:	09 95       	icall
     d7c:	1d aa       	std	Y+53, r1	; 0x35
     d7e:	1e aa       	std	Y+54, r1	; 0x36
     d80:	1a ae       	std	Y+58, r1	; 0x3a
     d82:	1b ae       	std	Y+59, r1	; 0x3b
     d84:	fe 01       	movw	r30, r28
     d86:	e4 5b       	subi	r30, 0xB4	; 180
     d88:	ff 4f       	sbci	r31, 0xFF	; 255
     d8a:	10 82       	st	Z, r1
     d8c:	1d ae       	std	Y+61, r1	; 0x3d
     d8e:	3e 97       	sbiw	r30, 0x0e	; 14
     d90:	10 82       	st	Z, r1
     d92:	11 82       	std	Z+1, r1	; 0x01
     d94:	12 82       	std	Z+2, r1	; 0x02
     d96:	13 82       	std	Z+3, r1	; 0x03
     d98:	3a 96       	adiw	r30, 0x0a	; 10
     d9a:	83 e0       	ldi	r24, 0x03	; 3
     d9c:	80 83       	st	Z, r24
     d9e:	31 96       	adiw	r30, 0x01	; 1
     da0:	81 e0       	ldi	r24, 0x01	; 1
     da2:	80 83       	st	Z, r24
     da4:	c0 5b       	subi	r28, 0xB0	; 176
     da6:	df 4f       	sbci	r29, 0xFF	; 255
     da8:	18 82       	st	Y, r1
     daa:	df 91       	pop	r29
     dac:	cf 91       	pop	r28
     dae:	08 95       	ret

00000db0 <_ZN3BTD14ACL_event_taskEv>:
     db0:	cf 93       	push	r28
     db2:	df 93       	push	r29
     db4:	ec 01       	movw	r28, r24
     db6:	ce 5b       	subi	r28, 0xBE	; 190
     db8:	df 4f       	sbci	r29, 0xFF	; 255
     dba:	88 81       	ld	r24, Y
     dbc:	99 81       	ldd	r25, Y+1	; 0x01
     dbe:	dc 01       	movw	r26, r24
     dc0:	ed 91       	ld	r30, X+
     dc2:	fc 91       	ld	r31, X
     dc4:	01 90       	ld	r0, Z+
     dc6:	f0 81       	ld	r31, Z
     dc8:	e0 2d       	mov	r30, r0
     dca:	68 e5       	ldi	r22, 0x58	; 88
     dcc:	72 e0       	ldi	r23, 0x02	; 2
     dce:	09 95       	icall
     dd0:	88 81       	ld	r24, Y
     dd2:	99 81       	ldd	r25, Y+1	; 0x01
     dd4:	dc 01       	movw	r26, r24
     dd6:	ed 91       	ld	r30, X+
     dd8:	fc 91       	ld	r31, X
     dda:	02 80       	ldd	r0, Z+2	; 0x02
     ddc:	f3 81       	ldd	r31, Z+3	; 0x03
     dde:	e0 2d       	mov	r30, r0
     de0:	09 95       	icall
     de2:	df 91       	pop	r29
     de4:	cf 91       	pop	r28
     de6:	08 95       	ret

00000de8 <_ZN3BTD11HCI_CommandEPhj>:
     de8:	ef 92       	push	r14
     dea:	ff 92       	push	r15
     dec:	0f 93       	push	r16
     dee:	1f 93       	push	r17
     df0:	cf 93       	push	r28
     df2:	7b 01       	movw	r14, r22
     df4:	8a 01       	movw	r16, r20
     df6:	fc 01       	movw	r30, r24
     df8:	eb 5a       	subi	r30, 0xAB	; 171
     dfa:	ff 4f       	sbci	r31, 0xFF	; 255
     dfc:	20 81       	ld	r18, Z
     dfe:	31 81       	ldd	r19, Z+1	; 0x01
     e00:	2e 7f       	andi	r18, 0xFE	; 254
     e02:	31 83       	std	Z+1, r19	; 0x01
     e04:	20 83       	st	Z, r18
     e06:	81 e0       	ldi	r24, 0x01	; 1
     e08:	0e 94 bd 12 	call	0x257a	; 0x257a <_Z15USART0_Transmith>
     e0c:	01 15       	cp	r16, r1
     e0e:	11 05       	cpc	r17, r1
     e10:	79 f0       	breq	.+30     	; 0xe30 <_ZN3BTD11HCI_CommandEPhj+0x48>
     e12:	80 e0       	ldi	r24, 0x00	; 0
     e14:	90 e0       	ldi	r25, 0x00	; 0
     e16:	c0 e0       	ldi	r28, 0x00	; 0
     e18:	f7 01       	movw	r30, r14
     e1a:	e8 0f       	add	r30, r24
     e1c:	f9 1f       	adc	r31, r25
     e1e:	80 81       	ld	r24, Z
     e20:	0e 94 bd 12 	call	0x257a	; 0x257a <_Z15USART0_Transmith>
     e24:	cf 5f       	subi	r28, 0xFF	; 255
     e26:	8c 2f       	mov	r24, r28
     e28:	90 e0       	ldi	r25, 0x00	; 0
     e2a:	80 17       	cp	r24, r16
     e2c:	91 07       	cpc	r25, r17
     e2e:	a0 f3       	brcs	.-24     	; 0xe18 <_ZN3BTD11HCI_CommandEPhj+0x30>
     e30:	cf 91       	pop	r28
     e32:	1f 91       	pop	r17
     e34:	0f 91       	pop	r16
     e36:	ff 90       	pop	r15
     e38:	ef 90       	pop	r14
     e3a:	08 95       	ret

00000e3c <_ZN3BTD9hci_resetEv>:
     e3c:	fc 01       	movw	r30, r24
     e3e:	eb 5a       	subi	r30, 0xAB	; 171
     e40:	ff 4f       	sbci	r31, 0xFF	; 255
     e42:	11 82       	std	Z+1, r1	; 0x01
     e44:	10 82       	st	Z, r1
     e46:	e3 e8       	ldi	r30, 0x83	; 131
     e48:	f4 e0       	ldi	r31, 0x04	; 4
     e4a:	23 e0       	ldi	r18, 0x03	; 3
     e4c:	20 83       	st	Z, r18
     e4e:	2c e0       	ldi	r18, 0x0C	; 12
     e50:	21 83       	std	Z+1, r18	; 0x01
     e52:	12 82       	std	Z+2, r1	; 0x02
     e54:	43 e0       	ldi	r20, 0x03	; 3
     e56:	50 e0       	ldi	r21, 0x00	; 0
     e58:	bf 01       	movw	r22, r30
     e5a:	0e 94 f4 06 	call	0xde8	; 0xde8 <_ZN3BTD11HCI_CommandEPhj>
     e5e:	08 95       	ret

00000e60 <_ZN3BTD21hci_write_scan_enableEv>:
     e60:	fc 01       	movw	r30, r24
     e62:	eb 5a       	subi	r30, 0xAB	; 171
     e64:	ff 4f       	sbci	r31, 0xFF	; 255
     e66:	20 81       	ld	r18, Z
     e68:	31 81       	ldd	r19, Z+1	; 0x01
     e6a:	2f 7e       	andi	r18, 0xEF	; 239
     e6c:	31 83       	std	Z+1, r19	; 0x01
     e6e:	20 83       	st	Z, r18
     e70:	e3 e8       	ldi	r30, 0x83	; 131
     e72:	f4 e0       	ldi	r31, 0x04	; 4
     e74:	2a e1       	ldi	r18, 0x1A	; 26
     e76:	20 83       	st	Z, r18
     e78:	2c e0       	ldi	r18, 0x0C	; 12
     e7a:	21 83       	std	Z+1, r18	; 0x01
     e7c:	21 e0       	ldi	r18, 0x01	; 1
     e7e:	22 83       	std	Z+2, r18	; 0x02
     e80:	fc 01       	movw	r30, r24
     e82:	24 81       	ldd	r18, Z+4	; 0x04
     e84:	35 81       	ldd	r19, Z+5	; 0x05
     e86:	23 2b       	or	r18, r19
     e88:	21 f0       	breq	.+8      	; 0xe92 <_ZN3BTD21hci_write_scan_enableEv+0x32>
     e8a:	23 e0       	ldi	r18, 0x03	; 3
     e8c:	20 93 86 04 	sts	0x0486, r18	; 0x800486 <hcibuf+0x3>
     e90:	03 c0       	rjmp	.+6      	; 0xe98 <_ZN3BTD21hci_write_scan_enableEv+0x38>
     e92:	22 e0       	ldi	r18, 0x02	; 2
     e94:	20 93 86 04 	sts	0x0486, r18	; 0x800486 <hcibuf+0x3>
     e98:	44 e0       	ldi	r20, 0x04	; 4
     e9a:	50 e0       	ldi	r21, 0x00	; 0
     e9c:	63 e8       	ldi	r22, 0x83	; 131
     e9e:	74 e0       	ldi	r23, 0x04	; 4
     ea0:	0e 94 f4 06 	call	0xde8	; 0xde8 <_ZN3BTD11HCI_CommandEPhj>
     ea4:	08 95       	ret

00000ea6 <_ZN3BTD15hci_read_bdaddrEv>:
     ea6:	fc 01       	movw	r30, r24
     ea8:	eb 5a       	subi	r30, 0xAB	; 171
     eaa:	ff 4f       	sbci	r31, 0xFF	; 255
     eac:	20 81       	ld	r18, Z
     eae:	31 81       	ldd	r19, Z+1	; 0x01
     eb0:	2f 7d       	andi	r18, 0xDF	; 223
     eb2:	31 83       	std	Z+1, r19	; 0x01
     eb4:	20 83       	st	Z, r18
     eb6:	e3 e8       	ldi	r30, 0x83	; 131
     eb8:	f4 e0       	ldi	r31, 0x04	; 4
     eba:	29 e0       	ldi	r18, 0x09	; 9
     ebc:	20 83       	st	Z, r18
     ebe:	20 e1       	ldi	r18, 0x10	; 16
     ec0:	21 83       	std	Z+1, r18	; 0x01
     ec2:	12 82       	std	Z+2, r1	; 0x02
     ec4:	43 e0       	ldi	r20, 0x03	; 3
     ec6:	50 e0       	ldi	r21, 0x00	; 0
     ec8:	bf 01       	movw	r22, r30
     eca:	0e 94 f4 06 	call	0xde8	; 0xde8 <_ZN3BTD11HCI_CommandEPhj>
     ece:	08 95       	ret

00000ed0 <_ZN3BTD34hci_read_local_version_informationEv>:
     ed0:	fc 01       	movw	r30, r24
     ed2:	eb 5a       	subi	r30, 0xAB	; 171
     ed4:	ff 4f       	sbci	r31, 0xFF	; 255
     ed6:	20 81       	ld	r18, Z
     ed8:	31 81       	ldd	r19, Z+1	; 0x01
     eda:	2f 7b       	andi	r18, 0xBF	; 191
     edc:	31 83       	std	Z+1, r19	; 0x01
     ede:	20 83       	st	Z, r18
     ee0:	e3 e8       	ldi	r30, 0x83	; 131
     ee2:	f4 e0       	ldi	r31, 0x04	; 4
     ee4:	21 e0       	ldi	r18, 0x01	; 1
     ee6:	20 83       	st	Z, r18
     ee8:	20 e1       	ldi	r18, 0x10	; 16
     eea:	21 83       	std	Z+1, r18	; 0x01
     eec:	12 82       	std	Z+2, r1	; 0x02
     eee:	43 e0       	ldi	r20, 0x03	; 3
     ef0:	50 e0       	ldi	r21, 0x00	; 0
     ef2:	bf 01       	movw	r22, r30
     ef4:	0e 94 f4 06 	call	0xde8	; 0xde8 <_ZN3BTD11HCI_CommandEPhj>
     ef8:	08 95       	ret

00000efa <_ZN3BTD21hci_accept_connectionEv>:
     efa:	dc 01       	movw	r26, r24
     efc:	fc 01       	movw	r30, r24
     efe:	eb 5a       	subi	r30, 0xAB	; 171
     f00:	ff 4f       	sbci	r31, 0xFF	; 255
     f02:	80 81       	ld	r24, Z
     f04:	91 81       	ldd	r25, Z+1	; 0x01
     f06:	8d 7f       	andi	r24, 0xFD	; 253
     f08:	91 83       	std	Z+1, r25	; 0x01
     f0a:	80 83       	st	Z, r24
     f0c:	e3 e8       	ldi	r30, 0x83	; 131
     f0e:	f4 e0       	ldi	r31, 0x04	; 4
     f10:	89 e0       	ldi	r24, 0x09	; 9
     f12:	80 83       	st	Z, r24
     f14:	84 e0       	ldi	r24, 0x04	; 4
     f16:	81 83       	std	Z+1, r24	; 0x01
     f18:	87 e0       	ldi	r24, 0x07	; 7
     f1a:	82 83       	std	Z+2, r24	; 0x02
     f1c:	50 96       	adiw	r26, 0x10	; 16
     f1e:	8c 91       	ld	r24, X
     f20:	50 97       	sbiw	r26, 0x10	; 16
     f22:	83 83       	std	Z+3, r24	; 0x03
     f24:	51 96       	adiw	r26, 0x11	; 17
     f26:	8c 91       	ld	r24, X
     f28:	51 97       	sbiw	r26, 0x11	; 17
     f2a:	84 83       	std	Z+4, r24	; 0x04
     f2c:	52 96       	adiw	r26, 0x12	; 18
     f2e:	8c 91       	ld	r24, X
     f30:	52 97       	sbiw	r26, 0x12	; 18
     f32:	85 83       	std	Z+5, r24	; 0x05
     f34:	53 96       	adiw	r26, 0x13	; 19
     f36:	8c 91       	ld	r24, X
     f38:	53 97       	sbiw	r26, 0x13	; 19
     f3a:	86 83       	std	Z+6, r24	; 0x06
     f3c:	54 96       	adiw	r26, 0x14	; 20
     f3e:	8c 91       	ld	r24, X
     f40:	54 97       	sbiw	r26, 0x14	; 20
     f42:	87 83       	std	Z+7, r24	; 0x07
     f44:	55 96       	adiw	r26, 0x15	; 21
     f46:	8c 91       	ld	r24, X
     f48:	55 97       	sbiw	r26, 0x15	; 21
     f4a:	80 87       	std	Z+8, r24	; 0x08
     f4c:	11 86       	std	Z+9, r1	; 0x09
     f4e:	4a e0       	ldi	r20, 0x0A	; 10
     f50:	50 e0       	ldi	r21, 0x00	; 0
     f52:	bf 01       	movw	r22, r30
     f54:	cd 01       	movw	r24, r26
     f56:	0e 94 f4 06 	call	0xde8	; 0xde8 <_ZN3BTD11HCI_CommandEPhj>
     f5a:	08 95       	ret

00000f5c <_ZN3BTD15hci_remote_nameEv>:
     f5c:	dc 01       	movw	r26, r24
     f5e:	fc 01       	movw	r30, r24
     f60:	eb 5a       	subi	r30, 0xAB	; 171
     f62:	ff 4f       	sbci	r31, 0xFF	; 255
     f64:	80 81       	ld	r24, Z
     f66:	91 81       	ldd	r25, Z+1	; 0x01
     f68:	87 7f       	andi	r24, 0xF7	; 247
     f6a:	91 83       	std	Z+1, r25	; 0x01
     f6c:	80 83       	st	Z, r24
     f6e:	e3 e8       	ldi	r30, 0x83	; 131
     f70:	f4 e0       	ldi	r31, 0x04	; 4
     f72:	89 e1       	ldi	r24, 0x19	; 25
     f74:	80 83       	st	Z, r24
     f76:	84 e0       	ldi	r24, 0x04	; 4
     f78:	81 83       	std	Z+1, r24	; 0x01
     f7a:	8a e0       	ldi	r24, 0x0A	; 10
     f7c:	82 83       	std	Z+2, r24	; 0x02
     f7e:	50 96       	adiw	r26, 0x10	; 16
     f80:	8c 91       	ld	r24, X
     f82:	50 97       	sbiw	r26, 0x10	; 16
     f84:	83 83       	std	Z+3, r24	; 0x03
     f86:	51 96       	adiw	r26, 0x11	; 17
     f88:	8c 91       	ld	r24, X
     f8a:	51 97       	sbiw	r26, 0x11	; 17
     f8c:	84 83       	std	Z+4, r24	; 0x04
     f8e:	52 96       	adiw	r26, 0x12	; 18
     f90:	8c 91       	ld	r24, X
     f92:	52 97       	sbiw	r26, 0x12	; 18
     f94:	85 83       	std	Z+5, r24	; 0x05
     f96:	53 96       	adiw	r26, 0x13	; 19
     f98:	8c 91       	ld	r24, X
     f9a:	53 97       	sbiw	r26, 0x13	; 19
     f9c:	86 83       	std	Z+6, r24	; 0x06
     f9e:	54 96       	adiw	r26, 0x14	; 20
     fa0:	8c 91       	ld	r24, X
     fa2:	54 97       	sbiw	r26, 0x14	; 20
     fa4:	87 83       	std	Z+7, r24	; 0x07
     fa6:	55 96       	adiw	r26, 0x15	; 21
     fa8:	8c 91       	ld	r24, X
     faa:	55 97       	sbiw	r26, 0x15	; 21
     fac:	80 87       	std	Z+8, r24	; 0x08
     fae:	81 e0       	ldi	r24, 0x01	; 1
     fb0:	81 87       	std	Z+9, r24	; 0x09
     fb2:	12 86       	std	Z+10, r1	; 0x0a
     fb4:	13 86       	std	Z+11, r1	; 0x0b
     fb6:	14 86       	std	Z+12, r1	; 0x0c
     fb8:	4d e0       	ldi	r20, 0x0D	; 13
     fba:	50 e0       	ldi	r21, 0x00	; 0
     fbc:	bf 01       	movw	r22, r30
     fbe:	cd 01       	movw	r24, r26
     fc0:	0e 94 f4 06 	call	0xde8	; 0xde8 <_ZN3BTD11HCI_CommandEPhj>
     fc4:	08 95       	ret

00000fc6 <_ZN3BTD18hci_set_local_nameEPKc>:
     fc6:	0f 93       	push	r16
     fc8:	1f 93       	push	r17
     fca:	cf 93       	push	r28
     fcc:	df 93       	push	r29
     fce:	8c 01       	movw	r16, r24
     fd0:	eb 01       	movw	r28, r22
     fd2:	e3 e8       	ldi	r30, 0x83	; 131
     fd4:	f4 e0       	ldi	r31, 0x04	; 4
     fd6:	83 e1       	ldi	r24, 0x13	; 19
     fd8:	80 83       	st	Z, r24
     fda:	8c e0       	ldi	r24, 0x0C	; 12
     fdc:	81 83       	std	Z+1, r24	; 0x01
     fde:	db 01       	movw	r26, r22
     fe0:	0d 90       	ld	r0, X+
     fe2:	00 20       	and	r0, r0
     fe4:	e9 f7       	brne	.-6      	; 0xfe0 <_ZN3BTD18hci_set_local_nameEPKc+0x1a>
     fe6:	cd 01       	movw	r24, r26
     fe8:	86 1b       	sub	r24, r22
     fea:	82 83       	std	Z+2, r24	; 0x02
     fec:	90 e0       	ldi	r25, 0x00	; 0
     fee:	0a c0       	rjmp	.+20     	; 0x1004 <_ZN3BTD18hci_set_local_nameEPKc+0x3e>
     ff0:	fe 01       	movw	r30, r28
     ff2:	e2 0f       	add	r30, r18
     ff4:	f3 1f       	adc	r31, r19
     ff6:	80 81       	ld	r24, Z
     ff8:	e9 2f       	mov	r30, r25
     ffa:	f0 e0       	ldi	r31, 0x00	; 0
     ffc:	ed 57       	subi	r30, 0x7D	; 125
     ffe:	fb 4f       	sbci	r31, 0xFB	; 251
    1000:	83 83       	std	Z+3, r24	; 0x03
    1002:	9f 5f       	subi	r25, 0xFF	; 255
    1004:	29 2f       	mov	r18, r25
    1006:	30 e0       	ldi	r19, 0x00	; 0
    1008:	fe 01       	movw	r30, r28
    100a:	01 90       	ld	r0, Z+
    100c:	00 20       	and	r0, r0
    100e:	e9 f7       	brne	.-6      	; 0x100a <_ZN3BTD18hci_set_local_nameEPKc+0x44>
    1010:	31 97       	sbiw	r30, 0x01	; 1
    1012:	ec 1b       	sub	r30, r28
    1014:	fd 0b       	sbc	r31, r29
    1016:	2e 17       	cp	r18, r30
    1018:	3f 07       	cpc	r19, r31
    101a:	50 f3       	brcs	.-44     	; 0xff0 <_ZN3BTD18hci_set_local_nameEPKc+0x2a>
    101c:	f9 01       	movw	r30, r18
    101e:	ed 57       	subi	r30, 0x7D	; 125
    1020:	fb 4f       	sbci	r31, 0xFB	; 251
    1022:	13 82       	std	Z+3, r1	; 0x03
    1024:	fe 01       	movw	r30, r28
    1026:	01 90       	ld	r0, Z+
    1028:	00 20       	and	r0, r0
    102a:	e9 f7       	brne	.-6      	; 0x1026 <_ZN3BTD18hci_set_local_nameEPKc+0x60>
    102c:	af 01       	movw	r20, r30
    102e:	4c 1b       	sub	r20, r28
    1030:	5d 0b       	sbc	r21, r29
    1032:	4d 5f       	subi	r20, 0xFD	; 253
    1034:	5f 4f       	sbci	r21, 0xFF	; 255
    1036:	63 e8       	ldi	r22, 0x83	; 131
    1038:	74 e0       	ldi	r23, 0x04	; 4
    103a:	c8 01       	movw	r24, r16
    103c:	0e 94 f4 06 	call	0xde8	; 0xde8 <_ZN3BTD11HCI_CommandEPhj>
    1040:	df 91       	pop	r29
    1042:	cf 91       	pop	r28
    1044:	1f 91       	pop	r17
    1046:	0f 91       	pop	r16
    1048:	08 95       	ret

0000104a <_ZN3BTD11hci_inquiryEv>:
    104a:	fc 01       	movw	r30, r24
    104c:	eb 5a       	subi	r30, 0xAB	; 171
    104e:	ff 4f       	sbci	r31, 0xFF	; 255
    1050:	20 81       	ld	r18, Z
    1052:	31 81       	ldd	r19, Z+1	; 0x01
    1054:	2f 77       	andi	r18, 0x7F	; 127
    1056:	31 83       	std	Z+1, r19	; 0x01
    1058:	20 83       	st	Z, r18
    105a:	e3 e8       	ldi	r30, 0x83	; 131
    105c:	f4 e0       	ldi	r31, 0x04	; 4
    105e:	21 e0       	ldi	r18, 0x01	; 1
    1060:	20 83       	st	Z, r18
    1062:	24 e0       	ldi	r18, 0x04	; 4
    1064:	21 83       	std	Z+1, r18	; 0x01
    1066:	25 e0       	ldi	r18, 0x05	; 5
    1068:	22 83       	std	Z+2, r18	; 0x02
    106a:	23 e3       	ldi	r18, 0x33	; 51
    106c:	23 83       	std	Z+3, r18	; 0x03
    106e:	2b e8       	ldi	r18, 0x8B	; 139
    1070:	24 83       	std	Z+4, r18	; 0x04
    1072:	2e e9       	ldi	r18, 0x9E	; 158
    1074:	25 83       	std	Z+5, r18	; 0x05
    1076:	20 e3       	ldi	r18, 0x30	; 48
    1078:	26 83       	std	Z+6, r18	; 0x06
    107a:	2a e0       	ldi	r18, 0x0A	; 10
    107c:	27 83       	std	Z+7, r18	; 0x07
    107e:	48 e0       	ldi	r20, 0x08	; 8
    1080:	50 e0       	ldi	r21, 0x00	; 0
    1082:	bf 01       	movw	r22, r30
    1084:	0e 94 f4 06 	call	0xde8	; 0xde8 <_ZN3BTD11HCI_CommandEPhj>
    1088:	08 95       	ret

0000108a <_ZN3BTD18hci_inquiry_cancelEv>:
    108a:	e3 e8       	ldi	r30, 0x83	; 131
    108c:	f4 e0       	ldi	r31, 0x04	; 4
    108e:	22 e0       	ldi	r18, 0x02	; 2
    1090:	20 83       	st	Z, r18
    1092:	24 e0       	ldi	r18, 0x04	; 4
    1094:	21 83       	std	Z+1, r18	; 0x01
    1096:	12 82       	std	Z+2, r1	; 0x02
    1098:	43 e0       	ldi	r20, 0x03	; 3
    109a:	50 e0       	ldi	r21, 0x00	; 0
    109c:	bf 01       	movw	r22, r30
    109e:	0e 94 f4 06 	call	0xde8	; 0xde8 <_ZN3BTD11HCI_CommandEPhj>
    10a2:	08 95       	ret

000010a4 <_ZN3BTD11hci_connectEPh>:
    10a4:	db 01       	movw	r26, r22
    10a6:	fc 01       	movw	r30, r24
    10a8:	eb 5a       	subi	r30, 0xAB	; 171
    10aa:	ff 4f       	sbci	r31, 0xFF	; 255
    10ac:	20 81       	ld	r18, Z
    10ae:	31 81       	ldd	r19, Z+1	; 0x01
    10b0:	2d 7f       	andi	r18, 0xFD	; 253
    10b2:	3e 7f       	andi	r19, 0xFE	; 254
    10b4:	31 83       	std	Z+1, r19	; 0x01
    10b6:	20 83       	st	Z, r18
    10b8:	e3 e8       	ldi	r30, 0x83	; 131
    10ba:	f4 e0       	ldi	r31, 0x04	; 4
    10bc:	25 e0       	ldi	r18, 0x05	; 5
    10be:	20 83       	st	Z, r18
    10c0:	24 e0       	ldi	r18, 0x04	; 4
    10c2:	21 83       	std	Z+1, r18	; 0x01
    10c4:	2d e0       	ldi	r18, 0x0D	; 13
    10c6:	22 83       	std	Z+2, r18	; 0x02
    10c8:	2c 91       	ld	r18, X
    10ca:	23 83       	std	Z+3, r18	; 0x03
    10cc:	11 96       	adiw	r26, 0x01	; 1
    10ce:	2c 91       	ld	r18, X
    10d0:	11 97       	sbiw	r26, 0x01	; 1
    10d2:	24 83       	std	Z+4, r18	; 0x04
    10d4:	12 96       	adiw	r26, 0x02	; 2
    10d6:	2c 91       	ld	r18, X
    10d8:	12 97       	sbiw	r26, 0x02	; 2
    10da:	25 83       	std	Z+5, r18	; 0x05
    10dc:	13 96       	adiw	r26, 0x03	; 3
    10de:	2c 91       	ld	r18, X
    10e0:	13 97       	sbiw	r26, 0x03	; 3
    10e2:	26 83       	std	Z+6, r18	; 0x06
    10e4:	14 96       	adiw	r26, 0x04	; 4
    10e6:	2c 91       	ld	r18, X
    10e8:	14 97       	sbiw	r26, 0x04	; 4
    10ea:	27 83       	std	Z+7, r18	; 0x07
    10ec:	15 96       	adiw	r26, 0x05	; 5
    10ee:	2c 91       	ld	r18, X
    10f0:	20 87       	std	Z+8, r18	; 0x08
    10f2:	28 e1       	ldi	r18, 0x18	; 24
    10f4:	21 87       	std	Z+9, r18	; 0x09
    10f6:	2c ec       	ldi	r18, 0xCC	; 204
    10f8:	22 87       	std	Z+10, r18	; 0x0a
    10fa:	21 e0       	ldi	r18, 0x01	; 1
    10fc:	23 87       	std	Z+11, r18	; 0x0b
    10fe:	14 86       	std	Z+12, r1	; 0x0c
    1100:	15 86       	std	Z+13, r1	; 0x0d
    1102:	16 86       	std	Z+14, r1	; 0x0e
    1104:	17 86       	std	Z+15, r1	; 0x0f
    1106:	40 e1       	ldi	r20, 0x10	; 16
    1108:	50 e0       	ldi	r21, 0x00	; 0
    110a:	bf 01       	movw	r22, r30
    110c:	0e 94 f4 06 	call	0xde8	; 0xde8 <_ZN3BTD11HCI_CommandEPhj>
    1110:	08 95       	ret

00001112 <_ZN3BTD11hci_connectEv>:
    1112:	bc 01       	movw	r22, r24
    1114:	60 5f       	subi	r22, 0xF0	; 240
    1116:	7f 4f       	sbci	r23, 0xFF	; 255
    1118:	0e 94 52 08 	call	0x10a4	; 0x10a4 <_ZN3BTD11hci_connectEPh>
    111c:	08 95       	ret

0000111e <_ZN3BTD26hci_pin_code_request_replyEv>:
    111e:	cf 93       	push	r28
    1120:	df 93       	push	r29
    1122:	ec 01       	movw	r28, r24
    1124:	e3 e8       	ldi	r30, 0x83	; 131
    1126:	f4 e0       	ldi	r31, 0x04	; 4
    1128:	8d e0       	ldi	r24, 0x0D	; 13
    112a:	80 83       	st	Z, r24
    112c:	84 e0       	ldi	r24, 0x04	; 4
    112e:	81 83       	std	Z+1, r24	; 0x01
    1130:	87 e1       	ldi	r24, 0x17	; 23
    1132:	82 83       	std	Z+2, r24	; 0x02
    1134:	88 89       	ldd	r24, Y+16	; 0x10
    1136:	83 83       	std	Z+3, r24	; 0x03
    1138:	89 89       	ldd	r24, Y+17	; 0x11
    113a:	84 83       	std	Z+4, r24	; 0x04
    113c:	8a 89       	ldd	r24, Y+18	; 0x12
    113e:	85 83       	std	Z+5, r24	; 0x05
    1140:	8b 89       	ldd	r24, Y+19	; 0x13
    1142:	86 83       	std	Z+6, r24	; 0x06
    1144:	8c 89       	ldd	r24, Y+20	; 0x14
    1146:	87 83       	std	Z+7, r24	; 0x07
    1148:	8d 89       	ldd	r24, Y+21	; 0x15
    114a:	80 87       	std	Z+8, r24	; 0x08
    114c:	8f a9       	ldd	r24, Y+55	; 0x37
    114e:	88 23       	and	r24, r24
    1150:	41 f1       	breq	.+80     	; 0x11a2 <_ZN3BTD26hci_pin_code_request_replyEv+0x84>
    1152:	86 e0       	ldi	r24, 0x06	; 6
    1154:	80 93 8c 04 	sts	0x048C, r24	; 0x80048c <hcibuf+0x9>
    1158:	fe 01       	movw	r30, r28
    115a:	e6 5b       	subi	r30, 0xB6	; 182
    115c:	ff 4f       	sbci	r31, 0xFF	; 255
    115e:	80 81       	ld	r24, Z
    1160:	88 23       	and	r24, r24
    1162:	69 f0       	breq	.+26     	; 0x117e <_ZN3BTD26hci_pin_code_request_replyEv+0x60>
    1164:	e2 54       	subi	r30, 0x42	; 66
    1166:	f1 09       	sbc	r31, r1
    1168:	ad e8       	ldi	r26, 0x8D	; 141
    116a:	b4 e0       	ldi	r27, 0x04	; 4
    116c:	9e 01       	movw	r18, r28
    116e:	22 5f       	subi	r18, 0xF2	; 242
    1170:	3f 4f       	sbci	r19, 0xFF	; 255
    1172:	81 91       	ld	r24, Z+
    1174:	8d 93       	st	X+, r24
    1176:	e2 17       	cp	r30, r18
    1178:	f3 07       	cpc	r31, r19
    117a:	d9 f7       	brne	.-10     	; 0x1172 <_ZN3BTD26hci_pin_code_request_replyEv+0x54>
    117c:	49 c0       	rjmp	.+146    	; 0x1210 <_ZN3BTD26hci_pin_code_request_replyEv+0xf2>
    117e:	fe 01       	movw	r30, r28
    1180:	70 96       	adiw	r30, 0x10	; 16
    1182:	ad e8       	ldi	r26, 0x8D	; 141
    1184:	b4 e0       	ldi	r27, 0x04	; 4
    1186:	9e 01       	movw	r18, r28
    1188:	2a 5e       	subi	r18, 0xEA	; 234
    118a:	3f 4f       	sbci	r19, 0xFF	; 255
    118c:	81 91       	ld	r24, Z+
    118e:	8d 93       	st	X+, r24
    1190:	e2 17       	cp	r30, r18
    1192:	f3 07       	cpc	r31, r19
    1194:	d9 f7       	brne	.-10     	; 0x118c <_ZN3BTD26hci_pin_code_request_replyEv+0x6e>
    1196:	3c c0       	rjmp	.+120    	; 0x1210 <_ZN3BTD26hci_pin_code_request_replyEv+0xf2>
    1198:	11 92       	st	Z+, r1
    119a:	e8 17       	cp	r30, r24
    119c:	f9 07       	cpc	r31, r25
    119e:	e1 f7       	brne	.-8      	; 0x1198 <_ZN3BTD26hci_pin_code_request_replyEv+0x7a>
    11a0:	2f c0       	rjmp	.+94     	; 0x1200 <_ZN3BTD26hci_pin_code_request_replyEv+0xe2>
    11a2:	ae 81       	ldd	r26, Y+6	; 0x06
    11a4:	bf 81       	ldd	r27, Y+7	; 0x07
    11a6:	fd 01       	movw	r30, r26
    11a8:	01 90       	ld	r0, Z+
    11aa:	00 20       	and	r0, r0
    11ac:	e9 f7       	brne	.-6      	; 0x11a8 <_ZN3BTD26hci_pin_code_request_replyEv+0x8a>
    11ae:	31 97       	sbiw	r30, 0x01	; 1
    11b0:	ea 1b       	sub	r30, r26
    11b2:	fb 0b       	sbc	r31, r27
    11b4:	e0 93 8c 04 	sts	0x048C, r30	; 0x80048c <hcibuf+0x9>
    11b8:	90 e0       	ldi	r25, 0x00	; 0
    11ba:	0a c0       	rjmp	.+20     	; 0x11d0 <_ZN3BTD26hci_pin_code_request_replyEv+0xb2>
    11bc:	fd 01       	movw	r30, r26
    11be:	e2 0f       	add	r30, r18
    11c0:	f3 1f       	adc	r31, r19
    11c2:	80 81       	ld	r24, Z
    11c4:	e9 2f       	mov	r30, r25
    11c6:	f0 e0       	ldi	r31, 0x00	; 0
    11c8:	ed 57       	subi	r30, 0x7D	; 125
    11ca:	fb 4f       	sbci	r31, 0xFB	; 251
    11cc:	82 87       	std	Z+10, r24	; 0x0a
    11ce:	9f 5f       	subi	r25, 0xFF	; 255
    11d0:	29 2f       	mov	r18, r25
    11d2:	30 e0       	ldi	r19, 0x00	; 0
    11d4:	ae 81       	ldd	r26, Y+6	; 0x06
    11d6:	bf 81       	ldd	r27, Y+7	; 0x07
    11d8:	fd 01       	movw	r30, r26
    11da:	01 90       	ld	r0, Z+
    11dc:	00 20       	and	r0, r0
    11de:	e9 f7       	brne	.-6      	; 0x11da <_ZN3BTD26hci_pin_code_request_replyEv+0xbc>
    11e0:	31 97       	sbiw	r30, 0x01	; 1
    11e2:	ea 1b       	sub	r30, r26
    11e4:	fb 0b       	sbc	r31, r27
    11e6:	2e 17       	cp	r18, r30
    11e8:	3f 07       	cpc	r19, r31
    11ea:	40 f3       	brcs	.-48     	; 0x11bc <_ZN3BTD26hci_pin_code_request_replyEv+0x9e>
    11ec:	90 31       	cpi	r25, 0x10	; 16
    11ee:	40 f4       	brcc	.+16     	; 0x1200 <_ZN3BTD26hci_pin_code_request_replyEv+0xe2>
    11f0:	e9 2f       	mov	r30, r25
    11f2:	f0 e0       	ldi	r31, 0x00	; 0
    11f4:	ed 57       	subi	r30, 0x7D	; 125
    11f6:	fb 4f       	sbci	r31, 0xFB	; 251
    11f8:	12 86       	std	Z+10, r1	; 0x0a
    11fa:	9f 5f       	subi	r25, 0xFF	; 255
    11fc:	90 31       	cpi	r25, 0x10	; 16
    11fe:	c1 f7       	brne	.-16     	; 0x11f0 <_ZN3BTD26hci_pin_code_request_replyEv+0xd2>
    1200:	4a e1       	ldi	r20, 0x1A	; 26
    1202:	50 e0       	ldi	r21, 0x00	; 0
    1204:	63 e8       	ldi	r22, 0x83	; 131
    1206:	74 e0       	ldi	r23, 0x04	; 4
    1208:	ce 01       	movw	r24, r28
    120a:	0e 94 f4 06 	call	0xde8	; 0xde8 <_ZN3BTD11HCI_CommandEPhj>
    120e:	05 c0       	rjmp	.+10     	; 0x121a <_ZN3BTD26hci_pin_code_request_replyEv+0xfc>
    1210:	e3 e9       	ldi	r30, 0x93	; 147
    1212:	f4 e0       	ldi	r31, 0x04	; 4
    1214:	8d e9       	ldi	r24, 0x9D	; 157
    1216:	94 e0       	ldi	r25, 0x04	; 4
    1218:	bf cf       	rjmp	.-130    	; 0x1198 <_ZN3BTD26hci_pin_code_request_replyEv+0x7a>
    121a:	df 91       	pop	r29
    121c:	cf 91       	pop	r28
    121e:	08 95       	ret

00001220 <_ZN3BTD35hci_pin_code_negative_request_replyEv>:
    1220:	dc 01       	movw	r26, r24
    1222:	e3 e8       	ldi	r30, 0x83	; 131
    1224:	f4 e0       	ldi	r31, 0x04	; 4
    1226:	8e e0       	ldi	r24, 0x0E	; 14
    1228:	80 83       	st	Z, r24
    122a:	84 e0       	ldi	r24, 0x04	; 4
    122c:	81 83       	std	Z+1, r24	; 0x01
    122e:	86 e0       	ldi	r24, 0x06	; 6
    1230:	82 83       	std	Z+2, r24	; 0x02
    1232:	50 96       	adiw	r26, 0x10	; 16
    1234:	8c 91       	ld	r24, X
    1236:	50 97       	sbiw	r26, 0x10	; 16
    1238:	83 83       	std	Z+3, r24	; 0x03
    123a:	51 96       	adiw	r26, 0x11	; 17
    123c:	8c 91       	ld	r24, X
    123e:	51 97       	sbiw	r26, 0x11	; 17
    1240:	84 83       	std	Z+4, r24	; 0x04
    1242:	52 96       	adiw	r26, 0x12	; 18
    1244:	8c 91       	ld	r24, X
    1246:	52 97       	sbiw	r26, 0x12	; 18
    1248:	85 83       	std	Z+5, r24	; 0x05
    124a:	53 96       	adiw	r26, 0x13	; 19
    124c:	8c 91       	ld	r24, X
    124e:	53 97       	sbiw	r26, 0x13	; 19
    1250:	86 83       	std	Z+6, r24	; 0x06
    1252:	54 96       	adiw	r26, 0x14	; 20
    1254:	8c 91       	ld	r24, X
    1256:	54 97       	sbiw	r26, 0x14	; 20
    1258:	87 83       	std	Z+7, r24	; 0x07
    125a:	55 96       	adiw	r26, 0x15	; 21
    125c:	8c 91       	ld	r24, X
    125e:	55 97       	sbiw	r26, 0x15	; 21
    1260:	80 87       	std	Z+8, r24	; 0x08
    1262:	49 e0       	ldi	r20, 0x09	; 9
    1264:	50 e0       	ldi	r21, 0x00	; 0
    1266:	bf 01       	movw	r22, r30
    1268:	cd 01       	movw	r24, r26
    126a:	0e 94 f4 06 	call	0xde8	; 0xde8 <_ZN3BTD11HCI_CommandEPhj>
    126e:	08 95       	ret

00001270 <_ZN3BTD35hci_link_key_request_negative_replyEv>:
    1270:	dc 01       	movw	r26, r24
    1272:	e3 e8       	ldi	r30, 0x83	; 131
    1274:	f4 e0       	ldi	r31, 0x04	; 4
    1276:	8c e0       	ldi	r24, 0x0C	; 12
    1278:	80 83       	st	Z, r24
    127a:	84 e0       	ldi	r24, 0x04	; 4
    127c:	81 83       	std	Z+1, r24	; 0x01
    127e:	86 e0       	ldi	r24, 0x06	; 6
    1280:	82 83       	std	Z+2, r24	; 0x02
    1282:	50 96       	adiw	r26, 0x10	; 16
    1284:	8c 91       	ld	r24, X
    1286:	50 97       	sbiw	r26, 0x10	; 16
    1288:	83 83       	std	Z+3, r24	; 0x03
    128a:	51 96       	adiw	r26, 0x11	; 17
    128c:	8c 91       	ld	r24, X
    128e:	51 97       	sbiw	r26, 0x11	; 17
    1290:	84 83       	std	Z+4, r24	; 0x04
    1292:	52 96       	adiw	r26, 0x12	; 18
    1294:	8c 91       	ld	r24, X
    1296:	52 97       	sbiw	r26, 0x12	; 18
    1298:	85 83       	std	Z+5, r24	; 0x05
    129a:	53 96       	adiw	r26, 0x13	; 19
    129c:	8c 91       	ld	r24, X
    129e:	53 97       	sbiw	r26, 0x13	; 19
    12a0:	86 83       	std	Z+6, r24	; 0x06
    12a2:	54 96       	adiw	r26, 0x14	; 20
    12a4:	8c 91       	ld	r24, X
    12a6:	54 97       	sbiw	r26, 0x14	; 20
    12a8:	87 83       	std	Z+7, r24	; 0x07
    12aa:	55 96       	adiw	r26, 0x15	; 21
    12ac:	8c 91       	ld	r24, X
    12ae:	55 97       	sbiw	r26, 0x15	; 21
    12b0:	80 87       	std	Z+8, r24	; 0x08
    12b2:	49 e0       	ldi	r20, 0x09	; 9
    12b4:	50 e0       	ldi	r21, 0x00	; 0
    12b6:	bf 01       	movw	r22, r30
    12b8:	cd 01       	movw	r24, r26
    12ba:	0e 94 f4 06 	call	0xde8	; 0xde8 <_ZN3BTD11HCI_CommandEPhj>
    12be:	08 95       	ret

000012c0 <_ZN3BTD26hci_authentication_requestEv>:
    12c0:	e3 e8       	ldi	r30, 0x83	; 131
    12c2:	f4 e0       	ldi	r31, 0x04	; 4
    12c4:	21 e1       	ldi	r18, 0x11	; 17
    12c6:	20 83       	st	Z, r18
    12c8:	24 e0       	ldi	r18, 0x04	; 4
    12ca:	21 83       	std	Z+1, r18	; 0x01
    12cc:	22 e0       	ldi	r18, 0x02	; 2
    12ce:	22 83       	std	Z+2, r18	; 0x02
    12d0:	dc 01       	movw	r26, r24
    12d2:	1e 96       	adiw	r26, 0x0e	; 14
    12d4:	3c 91       	ld	r19, X
    12d6:	1e 97       	sbiw	r26, 0x0e	; 14
    12d8:	1f 96       	adiw	r26, 0x0f	; 15
    12da:	2c 91       	ld	r18, X
    12dc:	33 83       	std	Z+3, r19	; 0x03
    12de:	2f 70       	andi	r18, 0x0F	; 15
    12e0:	24 83       	std	Z+4, r18	; 0x04
    12e2:	45 e0       	ldi	r20, 0x05	; 5
    12e4:	50 e0       	ldi	r21, 0x00	; 0
    12e6:	bf 01       	movw	r22, r30
    12e8:	0e 94 f4 06 	call	0xde8	; 0xde8 <_ZN3BTD11HCI_CommandEPhj>
    12ec:	08 95       	ret

000012ee <_ZN3BTD14hci_disconnectEj>:
    12ee:	fc 01       	movw	r30, r24
    12f0:	eb 5a       	subi	r30, 0xAB	; 171
    12f2:	ff 4f       	sbci	r31, 0xFF	; 255
    12f4:	20 81       	ld	r18, Z
    12f6:	31 81       	ldd	r19, Z+1	; 0x01
    12f8:	2b 7f       	andi	r18, 0xFB	; 251
    12fa:	31 83       	std	Z+1, r19	; 0x01
    12fc:	20 83       	st	Z, r18
    12fe:	e3 e8       	ldi	r30, 0x83	; 131
    1300:	f4 e0       	ldi	r31, 0x04	; 4
    1302:	26 e0       	ldi	r18, 0x06	; 6
    1304:	20 83       	st	Z, r18
    1306:	24 e0       	ldi	r18, 0x04	; 4
    1308:	21 83       	std	Z+1, r18	; 0x01
    130a:	23 e0       	ldi	r18, 0x03	; 3
    130c:	22 83       	std	Z+2, r18	; 0x02
    130e:	63 83       	std	Z+3, r22	; 0x03
    1310:	7f 70       	andi	r23, 0x0F	; 15
    1312:	74 83       	std	Z+4, r23	; 0x04
    1314:	23 e1       	ldi	r18, 0x13	; 19
    1316:	25 83       	std	Z+5, r18	; 0x05
    1318:	46 e0       	ldi	r20, 0x06	; 6
    131a:	50 e0       	ldi	r21, 0x00	; 0
    131c:	bf 01       	movw	r22, r30
    131e:	0e 94 f4 06 	call	0xde8	; 0xde8 <_ZN3BTD11HCI_CommandEPhj>
    1322:	08 95       	ret

00001324 <_ZN3BTD14HCI_event_taskEv>:
    1324:	8f 92       	push	r8
    1326:	9f 92       	push	r9
    1328:	af 92       	push	r10
    132a:	bf 92       	push	r11
    132c:	cf 92       	push	r12
    132e:	df 92       	push	r13
    1330:	ef 92       	push	r14
    1332:	ff 92       	push	r15
    1334:	0f 93       	push	r16
    1336:	1f 93       	push	r17
    1338:	cf 93       	push	r28
    133a:	df 93       	push	r29
    133c:	ec 01       	movw	r28, r24
    133e:	e0 91 83 04 	lds	r30, 0x0483	; 0x800483 <hcibuf>
    1342:	4e 2f       	mov	r20, r30
    1344:	50 e0       	ldi	r21, 0x00	; 0
    1346:	fa 01       	movw	r30, r20
    1348:	31 97       	sbiw	r30, 0x01	; 1
    134a:	e0 32       	cpi	r30, 0x20	; 32
    134c:	f1 05       	cpc	r31, r1
    134e:	08 f0       	brcs	.+2      	; 0x1352 <_ZN3BTD14HCI_event_taskEv+0x2e>
    1350:	db c2       	rjmp	.+1462   	; 0x1908 <_ZN3BTD14HCI_event_taskEv+0x5e4>
    1352:	e6 5a       	subi	r30, 0xA6	; 166
    1354:	ff 4f       	sbci	r31, 0xFF	; 255
    1356:	0c 94 30 1e 	jmp	0x3c60	; 0x3c60 <__tablejump2__>
    135a:	80 91 88 04 	lds	r24, 0x0488	; 0x800488 <hcibuf+0x5>
    135e:	81 11       	cpse	r24, r1
    1360:	0b c3       	rjmp	.+1558   	; 0x1978 <_ZN3BTD14HCI_event_taskEv+0x654>
    1362:	fe 01       	movw	r30, r28
    1364:	eb 5a       	subi	r30, 0xAB	; 171
    1366:	ff 4f       	sbci	r31, 0xFF	; 255
    1368:	20 81       	ld	r18, Z
    136a:	31 81       	ldd	r19, Z+1	; 0x01
    136c:	c9 01       	movw	r24, r18
    136e:	81 60       	ori	r24, 0x01	; 1
    1370:	91 83       	std	Z+1, r25	; 0x01
    1372:	80 83       	st	Z, r24
    1374:	80 91 86 04 	lds	r24, 0x0486	; 0x800486 <hcibuf+0x3>
    1378:	81 30       	cpi	r24, 0x01	; 1
    137a:	61 f4       	brne	.+24     	; 0x1394 <_ZN3BTD14HCI_event_taskEv+0x70>
    137c:	80 91 87 04 	lds	r24, 0x0487	; 0x800487 <hcibuf+0x4>
    1380:	80 31       	cpi	r24, 0x10	; 16
    1382:	09 f0       	breq	.+2      	; 0x1386 <_ZN3BTD14HCI_event_taskEv+0x62>
    1384:	f9 c2       	rjmp	.+1522   	; 0x1978 <_ZN3BTD14HCI_event_taskEv+0x654>
    1386:	80 91 89 04 	lds	r24, 0x0489	; 0x800489 <hcibuf+0x6>
    138a:	8c ab       	std	Y+52, r24	; 0x34
    138c:	21 64       	ori	r18, 0x41	; 65
    138e:	31 83       	std	Z+1, r19	; 0x01
    1390:	20 83       	st	Z, r18
    1392:	f2 c2       	rjmp	.+1508   	; 0x1978 <_ZN3BTD14HCI_event_taskEv+0x654>
    1394:	89 30       	cpi	r24, 0x09	; 9
    1396:	09 f0       	breq	.+2      	; 0x139a <_ZN3BTD14HCI_event_taskEv+0x76>
    1398:	ef c2       	rjmp	.+1502   	; 0x1978 <_ZN3BTD14HCI_event_taskEv+0x654>
    139a:	80 91 87 04 	lds	r24, 0x0487	; 0x800487 <hcibuf+0x4>
    139e:	80 31       	cpi	r24, 0x10	; 16
    13a0:	09 f0       	breq	.+2      	; 0x13a4 <_ZN3BTD14HCI_event_taskEv+0x80>
    13a2:	ea c2       	rjmp	.+1492   	; 0x1978 <_ZN3BTD14HCI_event_taskEv+0x654>
    13a4:	a9 e8       	ldi	r26, 0x89	; 137
    13a6:	b4 e0       	ldi	r27, 0x04	; 4
    13a8:	fe 01       	movw	r30, r28
    13aa:	38 96       	adiw	r30, 0x08	; 8
    13ac:	ae 01       	movw	r20, r28
    13ae:	42 5f       	subi	r20, 0xF2	; 242
    13b0:	5f 4f       	sbci	r21, 0xFF	; 255
    13b2:	8d 91       	ld	r24, X+
    13b4:	81 93       	st	Z+, r24
    13b6:	e4 17       	cp	r30, r20
    13b8:	f5 07       	cpc	r31, r21
    13ba:	d9 f7       	brne	.-10     	; 0x13b2 <_ZN3BTD14HCI_event_taskEv+0x8e>
    13bc:	cb 5a       	subi	r28, 0xAB	; 171
    13be:	df 4f       	sbci	r29, 0xFF	; 255
    13c0:	21 62       	ori	r18, 0x21	; 33
    13c2:	39 83       	std	Y+1, r19	; 0x01
    13c4:	28 83       	st	Y, r18
    13c6:	d8 c2       	rjmp	.+1456   	; 0x1978 <_ZN3BTD14HCI_event_taskEv+0x654>
    13c8:	80 91 85 04 	lds	r24, 0x0485	; 0x800485 <hcibuf+0x2>
    13cc:	88 23       	and	r24, r24
    13ce:	09 f4       	brne	.+2      	; 0x13d2 <_ZN3BTD14HCI_event_taskEv+0xae>
    13d0:	d3 c2       	rjmp	.+1446   	; 0x1978 <_ZN3BTD14HCI_event_taskEv+0x654>
    13d2:	60 e8       	ldi	r22, 0x80	; 128
    13d4:	87 e7       	ldi	r24, 0x77	; 119
    13d6:	98 e0       	ldi	r25, 0x08	; 8
    13d8:	0e 94 27 13 	call	0x264e	; 0x264e <_Z6NotifyPKch>
    13dc:	60 e8       	ldi	r22, 0x80	; 128
    13de:	80 91 85 04 	lds	r24, 0x0485	; 0x800485 <hcibuf+0x2>
    13e2:	0e 94 3a 13 	call	0x2674	; 0x2674 <_Z10D_PrintHexhh>
    13e6:	c8 c2       	rjmp	.+1424   	; 0x1978 <_ZN3BTD14HCI_event_taskEv+0x654>
    13e8:	fc 01       	movw	r30, r24
    13ea:	e9 5a       	subi	r30, 0xA9	; 169
    13ec:	ff 4f       	sbci	r31, 0xFF	; 255
    13ee:	80 81       	ld	r24, Z
    13f0:	85 30       	cpi	r24, 0x05	; 5
    13f2:	80 f0       	brcs	.+32     	; 0x1414 <_ZN3BTD14HCI_event_taskEv+0xf0>
    13f4:	8f a9       	ldd	r24, Y+55	; 0x37
    13f6:	81 11       	cpse	r24, r1
    13f8:	96 c2       	rjmp	.+1324   	; 0x1926 <_ZN3BTD14HCI_event_taskEv+0x602>
    13fa:	8c ad       	ldd	r24, Y+60	; 0x3c
    13fc:	81 11       	cpse	r24, r1
    13fe:	9d c2       	rjmp	.+1338   	; 0x193a <_ZN3BTD14HCI_event_taskEv+0x616>
    1400:	09 c0       	rjmp	.+18     	; 0x1414 <_ZN3BTD14HCI_event_taskEv+0xf0>
    1402:	1d aa       	std	Y+53, r1	; 0x35
    1404:	1f aa       	std	Y+55, r1	; 0x37
    1406:	1a ae       	std	Y+58, r1	; 0x3a
    1408:	1c ae       	std	Y+60, r1	; 0x3c
    140a:	8b e0       	ldi	r24, 0x0B	; 11
    140c:	fe 01       	movw	r30, r28
    140e:	e0 5b       	subi	r30, 0xB0	; 176
    1410:	ff 4f       	sbci	r31, 0xFF	; 255
    1412:	80 83       	st	Z, r24
    1414:	c9 5a       	subi	r28, 0xA9	; 169
    1416:	df 4f       	sbci	r29, 0xFF	; 255
    1418:	88 81       	ld	r24, Y
    141a:	8f 5f       	subi	r24, 0xFF	; 255
    141c:	88 83       	st	Y, r24
    141e:	ac c2       	rjmp	.+1368   	; 0x1978 <_ZN3BTD14HCI_event_taskEv+0x654>
    1420:	80 91 85 04 	lds	r24, 0x0485	; 0x800485 <hcibuf+0x2>
    1424:	88 23       	and	r24, r24
    1426:	09 f4       	brne	.+2      	; 0x142a <_ZN3BTD14HCI_event_taskEv+0x106>
    1428:	a7 c2       	rjmp	.+1358   	; 0x1978 <_ZN3BTD14HCI_event_taskEv+0x654>
    142a:	60 e8       	ldi	r22, 0x80	; 128
    142c:	8c e2       	ldi	r24, 0x2C	; 44
    142e:	98 e0       	ldi	r25, 0x08	; 8
    1430:	0e 94 27 13 	call	0x264e	; 0x264e <_Z6NotifyPKch>
    1434:	03 e8       	ldi	r16, 0x83	; 131
    1436:	14 e0       	ldi	r17, 0x04	; 4
    1438:	60 e8       	ldi	r22, 0x80	; 128
    143a:	d8 01       	movw	r26, r16
    143c:	12 96       	adiw	r26, 0x02	; 2
    143e:	8c 91       	ld	r24, X
    1440:	0e 94 3a 13 	call	0x2674	; 0x2674 <_Z10D_PrintHexhh>
    1444:	d8 01       	movw	r26, r16
    1446:	12 96       	adiw	r26, 0x02	; 2
    1448:	ec 91       	ld	r30, X
    144a:	ee 23       	and	r30, r30
    144c:	09 f4       	brne	.+2      	; 0x1450 <_ZN3BTD14HCI_event_taskEv+0x12c>
    144e:	94 c2       	rjmp	.+1320   	; 0x1978 <_ZN3BTD14HCI_event_taskEv+0x654>
    1450:	81 2c       	mov	r8, r1
    1452:	91 2c       	mov	r9, r1
    1454:	6e 01       	movw	r12, r28
    1456:	bd e4       	ldi	r27, 0x4D	; 77
    1458:	cb 0e       	add	r12, r27
    145a:	d1 1c       	adc	r13, r1
    145c:	8e 01       	movw	r16, r28
    145e:	02 5b       	subi	r16, 0xB2	; 178
    1460:	1f 4f       	sbci	r17, 0xFF	; 255
    1462:	7e 01       	movw	r14, r28
    1464:	ff e4       	ldi	r31, 0x4F	; 79
    1466:	ef 0e       	add	r14, r31
    1468:	f1 1c       	adc	r15, r1
    146a:	0f 2e       	mov	r0, r31
    146c:	f3 e8       	ldi	r31, 0x83	; 131
    146e:	af 2e       	mov	r10, r31
    1470:	f4 e0       	ldi	r31, 0x04	; 4
    1472:	bf 2e       	mov	r11, r31
    1474:	f0 2d       	mov	r31, r0
    1476:	ee 0f       	add	r30, r30
    1478:	ee 0f       	add	r30, r30
    147a:	ee 0f       	add	r30, r30
    147c:	e8 0d       	add	r30, r8
    147e:	f0 e0       	ldi	r31, 0x00	; 0
    1480:	ed 57       	subi	r30, 0x7D	; 125
    1482:	fb 4f       	sbci	r31, 0xFB	; 251
    1484:	84 81       	ldd	r24, Z+4	; 0x04
    1486:	d6 01       	movw	r26, r12
    1488:	8c 93       	st	X, r24
    148a:	85 81       	ldd	r24, Z+5	; 0x05
    148c:	d8 01       	movw	r26, r16
    148e:	8c 93       	st	X, r24
    1490:	86 81       	ldd	r24, Z+6	; 0x06
    1492:	f7 01       	movw	r30, r14
    1494:	80 83       	st	Z, r24
    1496:	60 e8       	ldi	r22, 0x80	; 128
    1498:	88 e1       	ldi	r24, 0x18	; 24
    149a:	98 e0       	ldi	r25, 0x08	; 8
    149c:	0e 94 27 13 	call	0x264e	; 0x264e <_Z6NotifyPKch>
    14a0:	60 e8       	ldi	r22, 0x80	; 128
    14a2:	d7 01       	movw	r26, r14
    14a4:	8c 91       	ld	r24, X
    14a6:	0e 94 3a 13 	call	0x2674	; 0x2674 <_Z10D_PrintHexhh>
    14aa:	60 e8       	ldi	r22, 0x80	; 128
    14ac:	86 e1       	ldi	r24, 0x16	; 22
    14ae:	98 e0       	ldi	r25, 0x08	; 8
    14b0:	0e 94 27 13 	call	0x264e	; 0x264e <_Z6NotifyPKch>
    14b4:	60 e8       	ldi	r22, 0x80	; 128
    14b6:	f8 01       	movw	r30, r16
    14b8:	80 81       	ld	r24, Z
    14ba:	0e 94 3a 13 	call	0x2674	; 0x2674 <_Z10D_PrintHexhh>
    14be:	60 e8       	ldi	r22, 0x80	; 128
    14c0:	84 e1       	ldi	r24, 0x14	; 20
    14c2:	98 e0       	ldi	r25, 0x08	; 8
    14c4:	0e 94 27 13 	call	0x264e	; 0x264e <_Z6NotifyPKch>
    14c8:	60 e8       	ldi	r22, 0x80	; 128
    14ca:	d6 01       	movw	r26, r12
    14cc:	8c 91       	ld	r24, X
    14ce:	0e 94 3a 13 	call	0x2674	; 0x2674 <_Z10D_PrintHexhh>
    14d2:	8f a9       	ldd	r24, Y+55	; 0x37
    14d4:	88 23       	and	r24, r24
    14d6:	81 f1       	breq	.+96     	; 0x1538 <_ZN3BTD14HCI_event_taskEv+0x214>
    14d8:	f7 01       	movw	r30, r14
    14da:	80 81       	ld	r24, Z
    14dc:	81 11       	cpse	r24, r1
    14de:	2c c0       	rjmp	.+88     	; 0x1538 <_ZN3BTD14HCI_event_taskEv+0x214>
    14e0:	d8 01       	movw	r26, r16
    14e2:	8c 91       	ld	r24, X
    14e4:	85 70       	andi	r24, 0x05	; 5
    14e6:	09 f4       	brne	.+2      	; 0x14ea <_ZN3BTD14HCI_event_taskEv+0x1c6>
    14e8:	5e c0       	rjmp	.+188    	; 0x15a6 <_ZN3BTD14HCI_event_taskEv+0x282>
    14ea:	f6 01       	movw	r30, r12
    14ec:	80 81       	ld	r24, Z
    14ee:	8c 70       	andi	r24, 0x0C	; 12
    14f0:	09 f4       	brne	.+2      	; 0x14f4 <_ZN3BTD14HCI_event_taskEv+0x1d0>
    14f2:	2d c2       	rjmp	.+1114   	; 0x194e <_ZN3BTD14HCI_event_taskEv+0x62a>
    14f4:	81 e0       	ldi	r24, 0x01	; 1
    14f6:	fe 01       	movw	r30, r28
    14f8:	e5 5b       	subi	r30, 0xB5	; 181
    14fa:	ff 4f       	sbci	r31, 0xFF	; 255
    14fc:	80 83       	st	Z, r24
    14fe:	89 2d       	mov	r24, r9
    1500:	90 e0       	ldi	r25, 0x00	; 0
    1502:	9c 01       	movw	r18, r24
    1504:	22 0f       	add	r18, r18
    1506:	33 1f       	adc	r19, r19
    1508:	82 0f       	add	r24, r18
    150a:	93 1f       	adc	r25, r19
    150c:	88 0f       	add	r24, r24
    150e:	99 1f       	adc	r25, r25
    1510:	fc 01       	movw	r30, r24
    1512:	ea 57       	subi	r30, 0x7A	; 122
    1514:	fb 4f       	sbci	r31, 0xFB	; 251
    1516:	de 01       	movw	r26, r28
    1518:	50 96       	adiw	r26, 0x10	; 16
    151a:	84 57       	subi	r24, 0x74	; 116
    151c:	9b 4f       	sbci	r25, 0xFB	; 251
    151e:	21 91       	ld	r18, Z+
    1520:	2d 93       	st	X+, r18
    1522:	e8 17       	cp	r30, r24
    1524:	f9 07       	cpc	r31, r25
    1526:	d9 f7       	brne	.-10     	; 0x151e <_ZN3BTD14HCI_event_taskEv+0x1fa>
    1528:	cb 5a       	subi	r28, 0xAB	; 171
    152a:	df 4f       	sbci	r29, 0xFF	; 255
    152c:	88 81       	ld	r24, Y
    152e:	99 81       	ldd	r25, Y+1	; 0x01
    1530:	80 68       	ori	r24, 0x80	; 128
    1532:	99 83       	std	Y+1, r25	; 0x01
    1534:	88 83       	st	Y, r24
    1536:	20 c2       	rjmp	.+1088   	; 0x1978 <_ZN3BTD14HCI_event_taskEv+0x654>
    1538:	8c ad       	ldd	r24, Y+60	; 0x3c
    153a:	88 23       	and	r24, r24
    153c:	a1 f1       	breq	.+104    	; 0x15a6 <_ZN3BTD14HCI_event_taskEv+0x282>
    153e:	d8 01       	movw	r26, r16
    1540:	8c 91       	ld	r24, X
    1542:	85 70       	andi	r24, 0x05	; 5
    1544:	81 f1       	breq	.+96     	; 0x15a6 <_ZN3BTD14HCI_event_taskEv+0x282>
    1546:	f6 01       	movw	r30, r12
    1548:	80 81       	ld	r24, Z
    154a:	98 2f       	mov	r25, r24
    154c:	98 7c       	andi	r25, 0xC8	; 200
    154e:	59 f1       	breq	.+86     	; 0x15a6 <_ZN3BTD14HCI_event_taskEv+0x282>
    1550:	88 23       	and	r24, r24
    1552:	2c f4       	brge	.+10     	; 0x155e <_ZN3BTD14HCI_event_taskEv+0x23a>
    1554:	60 e8       	ldi	r22, 0x80	; 128
    1556:	86 e0       	ldi	r24, 0x06	; 6
    1558:	98 e0       	ldi	r25, 0x08	; 8
    155a:	0e 94 27 13 	call	0x264e	; 0x264e <_Z6NotifyPKch>
    155e:	fe 01       	movw	r30, r28
    1560:	e3 5b       	subi	r30, 0xB3	; 179
    1562:	ff 4f       	sbci	r31, 0xFF	; 255
    1564:	80 81       	ld	r24, Z
    1566:	86 ff       	sbrs	r24, 6
    1568:	05 c0       	rjmp	.+10     	; 0x1574 <_ZN3BTD14HCI_event_taskEv+0x250>
    156a:	60 e8       	ldi	r22, 0x80	; 128
    156c:	85 ef       	ldi	r24, 0xF5	; 245
    156e:	97 e0       	ldi	r25, 0x07	; 7
    1570:	0e 94 27 13 	call	0x264e	; 0x264e <_Z6NotifyPKch>
    1574:	fe 01       	movw	r30, r28
    1576:	e3 5b       	subi	r30, 0xB3	; 179
    1578:	ff 4f       	sbci	r31, 0xFF	; 255
    157a:	80 81       	ld	r24, Z
    157c:	83 ff       	sbrs	r24, 3
    157e:	eb c1       	rjmp	.+982    	; 0x1956 <_ZN3BTD14HCI_event_taskEv+0x632>
    1580:	60 e8       	ldi	r22, 0x80	; 128
    1582:	85 ee       	ldi	r24, 0xE5	; 229
    1584:	97 e0       	ldi	r25, 0x07	; 7
    1586:	0e 94 27 13 	call	0x264e	; 0x264e <_Z6NotifyPKch>
    158a:	e5 c1       	rjmp	.+970    	; 0x1956 <_ZN3BTD14HCI_event_taskEv+0x632>
    158c:	21 91       	ld	r18, Z+
    158e:	2d 93       	st	X+, r18
    1590:	e8 17       	cp	r30, r24
    1592:	f9 07       	cpc	r31, r25
    1594:	d9 f7       	brne	.-10     	; 0x158c <_ZN3BTD14HCI_event_taskEv+0x268>
    1596:	cb 5a       	subi	r28, 0xAB	; 171
    1598:	df 4f       	sbci	r29, 0xFF	; 255
    159a:	88 81       	ld	r24, Y
    159c:	99 81       	ldd	r25, Y+1	; 0x01
    159e:	80 68       	ori	r24, 0x80	; 128
    15a0:	99 83       	std	Y+1, r25	; 0x01
    15a2:	88 83       	st	Y, r24
    15a4:	e9 c1       	rjmp	.+978    	; 0x1978 <_ZN3BTD14HCI_event_taskEv+0x654>
    15a6:	93 94       	inc	r9
    15a8:	d5 01       	movw	r26, r10
    15aa:	12 96       	adiw	r26, 0x02	; 2
    15ac:	ec 91       	ld	r30, X
    15ae:	b3 e0       	ldi	r27, 0x03	; 3
    15b0:	8b 0e       	add	r8, r27
    15b2:	9e 16       	cp	r9, r30
    15b4:	08 f4       	brcc	.+2      	; 0x15b8 <_ZN3BTD14HCI_event_taskEv+0x294>
    15b6:	5f cf       	rjmp	.-322    	; 0x1476 <_ZN3BTD14HCI_event_taskEv+0x152>
    15b8:	df c1       	rjmp	.+958    	; 0x1978 <_ZN3BTD14HCI_event_taskEv+0x654>
    15ba:	fc 01       	movw	r30, r24
    15bc:	eb 5a       	subi	r30, 0xAB	; 171
    15be:	ff 4f       	sbci	r31, 0xFF	; 255
    15c0:	80 81       	ld	r24, Z
    15c2:	91 81       	ldd	r25, Z+1	; 0x01
    15c4:	91 60       	ori	r25, 0x01	; 1
    15c6:	91 83       	std	Z+1, r25	; 0x01
    15c8:	80 83       	st	Z, r24
    15ca:	80 91 85 04 	lds	r24, 0x0485	; 0x800485 <hcibuf+0x2>
    15ce:	81 11       	cpse	r24, r1
    15d0:	18 c0       	rjmp	.+48     	; 0x1602 <_ZN3BTD14HCI_event_taskEv+0x2de>
    15d2:	60 e8       	ldi	r22, 0x80	; 128
    15d4:	8c ec       	ldi	r24, 0xCC	; 204
    15d6:	97 e0       	ldi	r25, 0x07	; 7
    15d8:	0e 94 27 13 	call	0x264e	; 0x264e <_Z6NotifyPKch>
    15dc:	e3 e8       	ldi	r30, 0x83	; 131
    15de:	f4 e0       	ldi	r31, 0x04	; 4
    15e0:	84 81       	ldd	r24, Z+4	; 0x04
    15e2:	8f 70       	andi	r24, 0x0F	; 15
    15e4:	90 e0       	ldi	r25, 0x00	; 0
    15e6:	98 2f       	mov	r25, r24
    15e8:	88 27       	eor	r24, r24
    15ea:	23 81       	ldd	r18, Z+3	; 0x03
    15ec:	82 2b       	or	r24, r18
    15ee:	9f 87       	std	Y+15, r25	; 0x0f
    15f0:	8e 87       	std	Y+14, r24	; 0x0e
    15f2:	cb 5a       	subi	r28, 0xAB	; 171
    15f4:	df 4f       	sbci	r29, 0xFF	; 255
    15f6:	88 81       	ld	r24, Y
    15f8:	99 81       	ldd	r25, Y+1	; 0x01
    15fa:	82 60       	ori	r24, 0x02	; 2
    15fc:	99 83       	std	Y+1, r25	; 0x01
    15fe:	88 83       	st	Y, r24
    1600:	bb c1       	rjmp	.+886    	; 0x1978 <_ZN3BTD14HCI_event_taskEv+0x654>
    1602:	c0 5b       	subi	r28, 0xB0	; 176
    1604:	df 4f       	sbci	r29, 0xFF	; 255
    1606:	87 e0       	ldi	r24, 0x07	; 7
    1608:	88 83       	st	Y, r24
    160a:	60 e8       	ldi	r22, 0x80	; 128
    160c:	86 eb       	ldi	r24, 0xB6	; 182
    160e:	97 e0       	ldi	r25, 0x07	; 7
    1610:	0e 94 27 13 	call	0x264e	; 0x264e <_Z6NotifyPKch>
    1614:	60 e8       	ldi	r22, 0x80	; 128
    1616:	80 91 85 04 	lds	r24, 0x0485	; 0x800485 <hcibuf+0x2>
    161a:	0e 94 3a 13 	call	0x2674	; 0x2674 <_Z10D_PrintHexhh>
    161e:	ac c1       	rjmp	.+856    	; 0x1978 <_ZN3BTD14HCI_event_taskEv+0x654>
    1620:	80 91 85 04 	lds	r24, 0x0485	; 0x800485 <hcibuf+0x2>
    1624:	81 11       	cpse	r24, r1
    1626:	a8 c1       	rjmp	.+848    	; 0x1978 <_ZN3BTD14HCI_event_taskEv+0x654>
    1628:	cb 5a       	subi	r28, 0xAB	; 171
    162a:	df 4f       	sbci	r29, 0xFF	; 255
    162c:	88 81       	ld	r24, Y
    162e:	99 81       	ldd	r25, Y+1	; 0x01
    1630:	8d 7f       	andi	r24, 0xFD	; 253
    1632:	84 60       	ori	r24, 0x04	; 4
    1634:	99 83       	std	Y+1, r25	; 0x01
    1636:	88 83       	st	Y, r24
    1638:	9f c1       	rjmp	.+830    	; 0x1978 <_ZN3BTD14HCI_event_taskEv+0x654>
    163a:	80 91 85 04 	lds	r24, 0x0485	; 0x800485 <hcibuf+0x2>
    163e:	81 11       	cpse	r24, r1
    1640:	9b c1       	rjmp	.+822    	; 0x1978 <_ZN3BTD14HCI_event_taskEv+0x654>
    1642:	80 91 8c 04 	lds	r24, 0x048C	; 0x80048c <hcibuf+0x9>
    1646:	8e 8b       	std	Y+22, r24	; 0x16
    1648:	88 23       	and	r24, r24
    164a:	71 f0       	breq	.+28     	; 0x1668 <_ZN3BTD14HCI_event_taskEv+0x344>
    164c:	ad e8       	ldi	r26, 0x8D	; 141
    164e:	b4 e0       	ldi	r27, 0x04	; 4
    1650:	fe 01       	movw	r30, r28
    1652:	77 96       	adiw	r30, 0x17	; 23
    1654:	9e 01       	movw	r18, r28
    1656:	2c 5c       	subi	r18, 0xCC	; 204
    1658:	3f 4f       	sbci	r19, 0xFF	; 255
    165a:	8d 91       	ld	r24, X+
    165c:	81 93       	st	Z+, r24
    165e:	88 23       	and	r24, r24
    1660:	19 f0       	breq	.+6      	; 0x1668 <_ZN3BTD14HCI_event_taskEv+0x344>
    1662:	e2 17       	cp	r30, r18
    1664:	f3 07       	cpc	r31, r19
    1666:	c9 f7       	brne	.-14     	; 0x165a <_ZN3BTD14HCI_event_taskEv+0x336>
    1668:	cb 5a       	subi	r28, 0xAB	; 171
    166a:	df 4f       	sbci	r29, 0xFF	; 255
    166c:	88 81       	ld	r24, Y
    166e:	99 81       	ldd	r25, Y+1	; 0x01
    1670:	88 60       	ori	r24, 0x08	; 8
    1672:	99 83       	std	Y+1, r25	; 0x01
    1674:	88 83       	st	Y, r24
    1676:	80 c1       	rjmp	.+768    	; 0x1978 <_ZN3BTD14HCI_event_taskEv+0x654>
    1678:	a5 e8       	ldi	r26, 0x85	; 133
    167a:	b4 e0       	ldi	r27, 0x04	; 4
    167c:	fc 01       	movw	r30, r24
    167e:	70 96       	adiw	r30, 0x10	; 16
    1680:	9c 01       	movw	r18, r24
    1682:	2a 5e       	subi	r18, 0xEA	; 234
    1684:	3f 4f       	sbci	r19, 0xFF	; 255
    1686:	8d 91       	ld	r24, X+
    1688:	81 93       	st	Z+, r24
    168a:	e2 17       	cp	r30, r18
    168c:	f3 07       	cpc	r31, r19
    168e:	d9 f7       	brne	.-10     	; 0x1686 <_ZN3BTD14HCI_event_taskEv+0x362>
    1690:	a3 e8       	ldi	r26, 0x83	; 131
    1692:	b4 e0       	ldi	r27, 0x04	; 4
    1694:	18 96       	adiw	r26, 0x08	; 8
    1696:	8c 91       	ld	r24, X
    1698:	18 97       	sbiw	r26, 0x08	; 8
    169a:	fe 01       	movw	r30, r28
    169c:	e3 5b       	subi	r30, 0xB3	; 179
    169e:	ff 4f       	sbci	r31, 0xFF	; 255
    16a0:	80 83       	st	Z, r24
    16a2:	19 96       	adiw	r26, 0x09	; 9
    16a4:	8c 91       	ld	r24, X
    16a6:	19 97       	sbiw	r26, 0x09	; 9
    16a8:	31 96       	adiw	r30, 0x01	; 1
    16aa:	80 83       	st	Z, r24
    16ac:	1a 96       	adiw	r26, 0x0a	; 10
    16ae:	8c 91       	ld	r24, X
    16b0:	de 01       	movw	r26, r28
    16b2:	a1 5b       	subi	r26, 0xB1	; 177
    16b4:	bf 4f       	sbci	r27, 0xFF	; 255
    16b6:	8c 93       	st	X, r24
    16b8:	80 81       	ld	r24, Z
    16ba:	85 70       	andi	r24, 0x05	; 5
    16bc:	21 f1       	breq	.+72     	; 0x1706 <_ZN3BTD14HCI_event_taskEv+0x3e2>
    16be:	31 97       	sbiw	r30, 0x01	; 1
    16c0:	80 81       	ld	r24, Z
    16c2:	98 2f       	mov	r25, r24
    16c4:	98 7c       	andi	r25, 0xC8	; 200
    16c6:	f9 f0       	breq	.+62     	; 0x1706 <_ZN3BTD14HCI_event_taskEv+0x3e2>
    16c8:	88 23       	and	r24, r24
    16ca:	2c f4       	brge	.+10     	; 0x16d6 <_ZN3BTD14HCI_event_taskEv+0x3b2>
    16cc:	60 e8       	ldi	r22, 0x80	; 128
    16ce:	80 ea       	ldi	r24, 0xA0	; 160
    16d0:	97 e0       	ldi	r25, 0x07	; 7
    16d2:	0e 94 27 13 	call	0x264e	; 0x264e <_Z6NotifyPKch>
    16d6:	fe 01       	movw	r30, r28
    16d8:	e3 5b       	subi	r30, 0xB3	; 179
    16da:	ff 4f       	sbci	r31, 0xFF	; 255
    16dc:	80 81       	ld	r24, Z
    16de:	86 ff       	sbrs	r24, 6
    16e0:	05 c0       	rjmp	.+10     	; 0x16ec <_ZN3BTD14HCI_event_taskEv+0x3c8>
    16e2:	60 e8       	ldi	r22, 0x80	; 128
    16e4:	87 e8       	ldi	r24, 0x87	; 135
    16e6:	97 e0       	ldi	r25, 0x07	; 7
    16e8:	0e 94 27 13 	call	0x264e	; 0x264e <_Z6NotifyPKch>
    16ec:	fe 01       	movw	r30, r28
    16ee:	e3 5b       	subi	r30, 0xB3	; 179
    16f0:	ff 4f       	sbci	r31, 0xFF	; 255
    16f2:	80 81       	ld	r24, Z
    16f4:	83 ff       	sbrs	r24, 3
    16f6:	05 c0       	rjmp	.+10     	; 0x1702 <_ZN3BTD14HCI_event_taskEv+0x3de>
    16f8:	60 e8       	ldi	r22, 0x80	; 128
    16fa:	8f e6       	ldi	r24, 0x6F	; 111
    16fc:	97 e0       	ldi	r25, 0x07	; 7
    16fe:	0e 94 27 13 	call	0x264e	; 0x264e <_Z6NotifyPKch>
    1702:	81 e0       	ldi	r24, 0x01	; 1
    1704:	8b af       	std	Y+59, r24	; 0x3b
    1706:	60 e8       	ldi	r22, 0x80	; 128
    1708:	8b e5       	ldi	r24, 0x5B	; 91
    170a:	97 e0       	ldi	r25, 0x07	; 7
    170c:	0e 94 27 13 	call	0x264e	; 0x264e <_Z6NotifyPKch>
    1710:	fe 01       	movw	r30, r28
    1712:	e1 5b       	subi	r30, 0xB1	; 177
    1714:	ff 4f       	sbci	r31, 0xFF	; 255
    1716:	60 e8       	ldi	r22, 0x80	; 128
    1718:	80 81       	ld	r24, Z
    171a:	0e 94 3a 13 	call	0x2674	; 0x2674 <_Z10D_PrintHexhh>
    171e:	60 e8       	ldi	r22, 0x80	; 128
    1720:	89 e5       	ldi	r24, 0x59	; 89
    1722:	97 e0       	ldi	r25, 0x07	; 7
    1724:	0e 94 27 13 	call	0x264e	; 0x264e <_Z6NotifyPKch>
    1728:	fe 01       	movw	r30, r28
    172a:	e2 5b       	subi	r30, 0xB2	; 178
    172c:	ff 4f       	sbci	r31, 0xFF	; 255
    172e:	60 e8       	ldi	r22, 0x80	; 128
    1730:	80 81       	ld	r24, Z
    1732:	0e 94 3a 13 	call	0x2674	; 0x2674 <_Z10D_PrintHexhh>
    1736:	60 e8       	ldi	r22, 0x80	; 128
    1738:	87 e5       	ldi	r24, 0x57	; 87
    173a:	97 e0       	ldi	r25, 0x07	; 7
    173c:	0e 94 27 13 	call	0x264e	; 0x264e <_Z6NotifyPKch>
    1740:	fe 01       	movw	r30, r28
    1742:	e3 5b       	subi	r30, 0xB3	; 179
    1744:	ff 4f       	sbci	r31, 0xFF	; 255
    1746:	60 e8       	ldi	r22, 0x80	; 128
    1748:	80 81       	ld	r24, Z
    174a:	0e 94 3a 13 	call	0x2674	; 0x2674 <_Z10D_PrintHexhh>
    174e:	fe 01       	movw	r30, r28
    1750:	eb 5a       	subi	r30, 0xAB	; 171
    1752:	ff 4f       	sbci	r31, 0xFF	; 255
    1754:	80 81       	ld	r24, Z
    1756:	91 81       	ldd	r25, Z+1	; 0x01
    1758:	80 61       	ori	r24, 0x10	; 16
    175a:	91 83       	std	Z+1, r25	; 0x01
    175c:	80 83       	st	Z, r24
    175e:	c0 5b       	subi	r28, 0xB0	; 176
    1760:	df 4f       	sbci	r29, 0xFF	; 255
    1762:	8c e0       	ldi	r24, 0x0C	; 12
    1764:	88 83       	st	Y, r24
    1766:	08 c1       	rjmp	.+528    	; 0x1978 <_ZN3BTD14HCI_event_taskEv+0x654>
    1768:	8f a9       	ldd	r24, Y+55	; 0x37
    176a:	88 23       	and	r24, r24
    176c:	49 f0       	breq	.+18     	; 0x1780 <_ZN3BTD14HCI_event_taskEv+0x45c>
    176e:	60 e8       	ldi	r22, 0x80	; 128
    1770:	80 e4       	ldi	r24, 0x40	; 64
    1772:	97 e0       	ldi	r25, 0x07	; 7
    1774:	0e 94 27 13 	call	0x264e	; 0x264e <_Z6NotifyPKch>
    1778:	ce 01       	movw	r24, r28
    177a:	0e 94 8f 08 	call	0x111e	; 0x111e <_ZN3BTD26hci_pin_code_request_replyEv>
    177e:	fc c0       	rjmp	.+504    	; 0x1978 <_ZN3BTD14HCI_event_taskEv+0x654>
    1780:	8e 81       	ldd	r24, Y+6	; 0x06
    1782:	9f 81       	ldd	r25, Y+7	; 0x07
    1784:	89 2b       	or	r24, r25
    1786:	71 f0       	breq	.+28     	; 0x17a4 <_ZN3BTD14HCI_event_taskEv+0x480>
    1788:	60 e8       	ldi	r22, 0x80	; 128
    178a:	83 e2       	ldi	r24, 0x23	; 35
    178c:	97 e0       	ldi	r25, 0x07	; 7
    178e:	0e 94 27 13 	call	0x264e	; 0x264e <_Z6NotifyPKch>
    1792:	60 e8       	ldi	r22, 0x80	; 128
    1794:	8e 81       	ldd	r24, Y+6	; 0x06
    1796:	9f 81       	ldd	r25, Y+7	; 0x07
    1798:	0e 94 27 13 	call	0x264e	; 0x264e <_Z6NotifyPKch>
    179c:	ce 01       	movw	r24, r28
    179e:	0e 94 8f 08 	call	0x111e	; 0x111e <_ZN3BTD26hci_pin_code_request_replyEv>
    17a2:	ea c0       	rjmp	.+468    	; 0x1978 <_ZN3BTD14HCI_event_taskEv+0x654>
    17a4:	60 e8       	ldi	r22, 0x80	; 128
    17a6:	82 e1       	ldi	r24, 0x12	; 18
    17a8:	97 e0       	ldi	r25, 0x07	; 7
    17aa:	0e 94 27 13 	call	0x264e	; 0x264e <_Z6NotifyPKch>
    17ae:	ce 01       	movw	r24, r28
    17b0:	0e 94 10 09 	call	0x1220	; 0x1220 <_ZN3BTD35hci_pin_code_negative_request_replyEv>
    17b4:	e1 c0       	rjmp	.+450    	; 0x1978 <_ZN3BTD14HCI_event_taskEv+0x654>
    17b6:	60 e8       	ldi	r22, 0x80	; 128
    17b8:	8b ef       	ldi	r24, 0xFB	; 251
    17ba:	96 e0       	ldi	r25, 0x06	; 6
    17bc:	0e 94 27 13 	call	0x264e	; 0x264e <_Z6NotifyPKch>
    17c0:	ce 01       	movw	r24, r28
    17c2:	0e 94 38 09 	call	0x1270	; 0x1270 <_ZN3BTD35hci_link_key_request_negative_replyEv>
    17c6:	d8 c0       	rjmp	.+432    	; 0x1978 <_ZN3BTD14HCI_event_taskEv+0x654>
    17c8:	80 91 85 04 	lds	r24, 0x0485	; 0x800485 <hcibuf+0x2>
    17cc:	81 11       	cpse	r24, r1
    17ce:	1d c0       	rjmp	.+58     	; 0x180a <_ZN3BTD14HCI_event_taskEv+0x4e6>
    17d0:	8f a9       	ldd	r24, Y+55	; 0x37
    17d2:	88 23       	and	r24, r24
    17d4:	59 f0       	breq	.+22     	; 0x17ec <_ZN3BTD14HCI_event_taskEv+0x4c8>
    17d6:	8d a9       	ldd	r24, Y+53	; 0x35
    17d8:	81 11       	cpse	r24, r1
    17da:	08 c0       	rjmp	.+16     	; 0x17ec <_ZN3BTD14HCI_event_taskEv+0x4c8>
    17dc:	60 e8       	ldi	r22, 0x80	; 128
    17de:	89 ed       	ldi	r24, 0xD9	; 217
    17e0:	96 e0       	ldi	r25, 0x06	; 6
    17e2:	0e 94 27 13 	call	0x264e	; 0x264e <_Z6NotifyPKch>
    17e6:	81 e0       	ldi	r24, 0x01	; 1
    17e8:	8d ab       	std	Y+53, r24	; 0x35
    17ea:	c6 c0       	rjmp	.+396    	; 0x1978 <_ZN3BTD14HCI_event_taskEv+0x654>
    17ec:	8c ad       	ldd	r24, Y+60	; 0x3c
    17ee:	88 23       	and	r24, r24
    17f0:	09 f4       	brne	.+2      	; 0x17f4 <_ZN3BTD14HCI_event_taskEv+0x4d0>
    17f2:	c2 c0       	rjmp	.+388    	; 0x1978 <_ZN3BTD14HCI_event_taskEv+0x654>
    17f4:	8a ad       	ldd	r24, Y+58	; 0x3a
    17f6:	81 11       	cpse	r24, r1
    17f8:	bf c0       	rjmp	.+382    	; 0x1978 <_ZN3BTD14HCI_event_taskEv+0x654>
    17fa:	60 e8       	ldi	r22, 0x80	; 128
    17fc:	84 eb       	ldi	r24, 0xB4	; 180
    17fe:	96 e0       	ldi	r25, 0x06	; 6
    1800:	0e 94 27 13 	call	0x264e	; 0x264e <_Z6NotifyPKch>
    1804:	81 e0       	ldi	r24, 0x01	; 1
    1806:	8a af       	std	Y+58, r24	; 0x3a
    1808:	b7 c0       	rjmp	.+366    	; 0x1978 <_ZN3BTD14HCI_event_taskEv+0x654>
    180a:	60 e8       	ldi	r22, 0x80	; 128
    180c:	81 ea       	ldi	r24, 0xA1	; 161
    180e:	96 e0       	ldi	r25, 0x06	; 6
    1810:	0e 94 27 13 	call	0x264e	; 0x264e <_Z6NotifyPKch>
    1814:	60 e8       	ldi	r22, 0x80	; 128
    1816:	80 91 85 04 	lds	r24, 0x0485	; 0x800485 <hcibuf+0x2>
    181a:	0e 94 3a 13 	call	0x2674	; 0x2674 <_Z10D_PrintHexhh>
    181e:	6e 85       	ldd	r22, Y+14	; 0x0e
    1820:	7f 85       	ldd	r23, Y+15	; 0x0f
    1822:	ce 01       	movw	r24, r28
    1824:	0e 94 77 09 	call	0x12ee	; 0x12ee <_ZN3BTD14hci_disconnectEj>
    1828:	c0 5b       	subi	r28, 0xB0	; 176
    182a:	df 4f       	sbci	r29, 0xFF	; 255
    182c:	81 e1       	ldi	r24, 0x11	; 17
    182e:	88 83       	st	Y, r24
    1830:	a3 c0       	rjmp	.+326    	; 0x1978 <_ZN3BTD14HCI_event_taskEv+0x654>
    1832:	60 e8       	ldi	r22, 0x80	; 128
    1834:	8b e8       	ldi	r24, 0x8B	; 139
    1836:	96 e0       	ldi	r25, 0x06	; 6
    1838:	0e 94 27 13 	call	0x264e	; 0x264e <_Z6NotifyPKch>
    183c:	9d c0       	rjmp	.+314    	; 0x1978 <_ZN3BTD14HCI_event_taskEv+0x654>
    183e:	60 e8       	ldi	r22, 0x80	; 128
    1840:	8c e7       	ldi	r24, 0x7C	; 124
    1842:	96 e0       	ldi	r25, 0x06	; 6
    1844:	0e 94 27 13 	call	0x264e	; 0x264e <_Z6NotifyPKch>
    1848:	97 c0       	rjmp	.+302    	; 0x1978 <_ZN3BTD14HCI_event_taskEv+0x654>
    184a:	cb 5a       	subi	r28, 0xAB	; 171
    184c:	df 4f       	sbci	r29, 0xFF	; 255
    184e:	88 81       	ld	r24, Y
    1850:	99 81       	ldd	r25, Y+1	; 0x01
    1852:	98 60       	ori	r25, 0x08	; 8
    1854:	99 83       	std	Y+1, r25	; 0x01
    1856:	88 83       	st	Y, r24
    1858:	8f c0       	rjmp	.+286    	; 0x1978 <_ZN3BTD14HCI_event_taskEv+0x654>
    185a:	60 e8       	ldi	r22, 0x80	; 128
    185c:	89 e6       	ldi	r24, 0x69	; 105
    185e:	96 e0       	ldi	r25, 0x06	; 6
    1860:	0e 94 27 13 	call	0x264e	; 0x264e <_Z6NotifyPKch>
    1864:	89 c0       	rjmp	.+274    	; 0x1978 <_ZN3BTD14HCI_event_taskEv+0x654>
    1866:	60 e8       	ldi	r22, 0x80	; 128
    1868:	8c e4       	ldi	r24, 0x4C	; 76
    186a:	96 e0       	ldi	r25, 0x06	; 6
    186c:	0e 94 27 13 	call	0x264e	; 0x264e <_Z6NotifyPKch>
    1870:	83 c0       	rjmp	.+262    	; 0x1978 <_ZN3BTD14HCI_event_taskEv+0x654>
    1872:	60 e8       	ldi	r22, 0x80	; 128
    1874:	8d e2       	ldi	r24, 0x2D	; 45
    1876:	96 e0       	ldi	r25, 0x06	; 6
    1878:	0e 94 27 13 	call	0x264e	; 0x264e <_Z6NotifyPKch>
    187c:	7d c0       	rjmp	.+250    	; 0x1978 <_ZN3BTD14HCI_event_taskEv+0x654>
    187e:	60 e8       	ldi	r22, 0x80	; 128
    1880:	83 e1       	ldi	r24, 0x13	; 19
    1882:	96 e0       	ldi	r25, 0x06	; 6
    1884:	0e 94 27 13 	call	0x264e	; 0x264e <_Z6NotifyPKch>
    1888:	77 c0       	rjmp	.+238    	; 0x1978 <_ZN3BTD14HCI_event_taskEv+0x654>
    188a:	60 e8       	ldi	r22, 0x80	; 128
    188c:	88 ef       	ldi	r24, 0xF8	; 248
    188e:	95 e0       	ldi	r25, 0x05	; 5
    1890:	0e 94 27 13 	call	0x264e	; 0x264e <_Z6NotifyPKch>
    1894:	71 c0       	rjmp	.+226    	; 0x1978 <_ZN3BTD14HCI_event_taskEv+0x654>
    1896:	60 e8       	ldi	r22, 0x80	; 128
    1898:	8a ed       	ldi	r24, 0xDA	; 218
    189a:	95 e0       	ldi	r25, 0x05	; 5
    189c:	0e 94 27 13 	call	0x264e	; 0x264e <_Z6NotifyPKch>
    18a0:	6b c0       	rjmp	.+214    	; 0x1978 <_ZN3BTD14HCI_event_taskEv+0x654>
    18a2:	60 e8       	ldi	r22, 0x80	; 128
    18a4:	80 ec       	ldi	r24, 0xC0	; 192
    18a6:	95 e0       	ldi	r25, 0x05	; 5
    18a8:	0e 94 27 13 	call	0x264e	; 0x264e <_Z6NotifyPKch>
    18ac:	65 c0       	rjmp	.+202    	; 0x1978 <_ZN3BTD14HCI_event_taskEv+0x654>
    18ae:	80 91 85 04 	lds	r24, 0x0485	; 0x800485 <hcibuf+0x2>
    18b2:	81 11       	cpse	r24, r1
    18b4:	0d c0       	rjmp	.+26     	; 0x18d0 <_ZN3BTD14HCI_event_taskEv+0x5ac>
    18b6:	60 e8       	ldi	r22, 0x80	; 128
    18b8:	81 ea       	ldi	r24, 0xA1	; 161
    18ba:	95 e0       	ldi	r25, 0x05	; 5
    18bc:	0e 94 27 13 	call	0x264e	; 0x264e <_Z6NotifyPKch>
    18c0:	cb 5a       	subi	r28, 0xAB	; 171
    18c2:	df 4f       	sbci	r29, 0xFF	; 255
    18c4:	88 81       	ld	r24, Y
    18c6:	99 81       	ldd	r25, Y+1	; 0x01
    18c8:	94 60       	ori	r25, 0x04	; 4
    18ca:	99 83       	std	Y+1, r25	; 0x01
    18cc:	88 83       	st	Y, r24
    18ce:	54 c0       	rjmp	.+168    	; 0x1978 <_ZN3BTD14HCI_event_taskEv+0x654>
    18d0:	60 e8       	ldi	r22, 0x80	; 128
    18d2:	84 e8       	ldi	r24, 0x84	; 132
    18d4:	95 e0       	ldi	r25, 0x05	; 5
    18d6:	0e 94 27 13 	call	0x264e	; 0x264e <_Z6NotifyPKch>
    18da:	4e c0       	rjmp	.+156    	; 0x1978 <_ZN3BTD14HCI_event_taskEv+0x654>
    18dc:	80 91 85 04 	lds	r24, 0x0485	; 0x800485 <hcibuf+0x2>
    18e0:	81 11       	cpse	r24, r1
    18e2:	0d c0       	rjmp	.+26     	; 0x18fe <_ZN3BTD14HCI_event_taskEv+0x5da>
    18e4:	cb 5a       	subi	r28, 0xAB	; 171
    18e6:	df 4f       	sbci	r29, 0xFF	; 255
    18e8:	88 81       	ld	r24, Y
    18ea:	99 81       	ldd	r25, Y+1	; 0x01
    18ec:	92 60       	ori	r25, 0x02	; 2
    18ee:	99 83       	std	Y+1, r25	; 0x01
    18f0:	88 83       	st	Y, r24
    18f2:	60 e8       	ldi	r22, 0x80	; 128
    18f4:	84 e6       	ldi	r24, 0x64	; 100
    18f6:	95 e0       	ldi	r25, 0x05	; 5
    18f8:	0e 94 27 13 	call	0x264e	; 0x264e <_Z6NotifyPKch>
    18fc:	05 c0       	rjmp	.+10     	; 0x1908 <_ZN3BTD14HCI_event_taskEv+0x5e4>
    18fe:	60 e8       	ldi	r22, 0x80	; 128
    1900:	88 e4       	ldi	r24, 0x48	; 72
    1902:	95 e0       	ldi	r25, 0x05	; 5
    1904:	0e 94 27 13 	call	0x264e	; 0x264e <_Z6NotifyPKch>
    1908:	80 91 83 04 	lds	r24, 0x0483	; 0x800483 <hcibuf>
    190c:	88 23       	and	r24, r24
    190e:	a1 f1       	breq	.+104    	; 0x1978 <_ZN3BTD14HCI_event_taskEv+0x654>
    1910:	60 e8       	ldi	r22, 0x80	; 128
    1912:	80 e3       	ldi	r24, 0x30	; 48
    1914:	95 e0       	ldi	r25, 0x05	; 5
    1916:	0e 94 27 13 	call	0x264e	; 0x264e <_Z6NotifyPKch>
    191a:	60 e8       	ldi	r22, 0x80	; 128
    191c:	80 91 83 04 	lds	r24, 0x0483	; 0x800483 <hcibuf>
    1920:	0e 94 3a 13 	call	0x2674	; 0x2674 <_Z10D_PrintHexhh>
    1924:	29 c0       	rjmp	.+82     	; 0x1978 <_ZN3BTD14HCI_event_taskEv+0x654>
    1926:	fe 01       	movw	r30, r28
    1928:	e9 5a       	subi	r30, 0xA9	; 169
    192a:	ff 4f       	sbci	r31, 0xFF	; 255
    192c:	10 82       	st	Z, r1
    192e:	60 e8       	ldi	r22, 0x80	; 128
    1930:	8f e5       	ldi	r24, 0x5F	; 95
    1932:	98 e0       	ldi	r25, 0x08	; 8
    1934:	0e 94 27 13 	call	0x264e	; 0x264e <_Z6NotifyPKch>
    1938:	64 cd       	rjmp	.-1336   	; 0x1402 <_ZN3BTD14HCI_event_taskEv+0xde>
    193a:	fe 01       	movw	r30, r28
    193c:	e9 5a       	subi	r30, 0xA9	; 169
    193e:	ff 4f       	sbci	r31, 0xFF	; 255
    1940:	10 82       	st	Z, r1
    1942:	60 e8       	ldi	r22, 0x80	; 128
    1944:	84 e4       	ldi	r24, 0x44	; 68
    1946:	98 e0       	ldi	r25, 0x08	; 8
    1948:	0e 94 27 13 	call	0x264e	; 0x264e <_Z6NotifyPKch>
    194c:	5a cd       	rjmp	.-1356   	; 0x1402 <_ZN3BTD14HCI_event_taskEv+0xde>
    194e:	8c ad       	ldd	r24, Y+60	; 0x3c
    1950:	81 11       	cpse	r24, r1
    1952:	f9 cd       	rjmp	.-1038   	; 0x1546 <_ZN3BTD14HCI_event_taskEv+0x222>
    1954:	28 ce       	rjmp	.-944    	; 0x15a6 <_ZN3BTD14HCI_event_taskEv+0x282>
    1956:	89 2d       	mov	r24, r9
    1958:	90 e0       	ldi	r25, 0x00	; 0
    195a:	9c 01       	movw	r18, r24
    195c:	22 0f       	add	r18, r18
    195e:	33 1f       	adc	r19, r19
    1960:	82 0f       	add	r24, r18
    1962:	93 1f       	adc	r25, r19
    1964:	88 0f       	add	r24, r24
    1966:	99 1f       	adc	r25, r25
    1968:	fc 01       	movw	r30, r24
    196a:	ea 57       	subi	r30, 0x7A	; 122
    196c:	fb 4f       	sbci	r31, 0xFB	; 251
    196e:	de 01       	movw	r26, r28
    1970:	50 96       	adiw	r26, 0x10	; 16
    1972:	84 57       	subi	r24, 0x74	; 116
    1974:	9b 4f       	sbci	r25, 0xFB	; 251
    1976:	0a ce       	rjmp	.-1004   	; 0x158c <_ZN3BTD14HCI_event_taskEv+0x268>
    1978:	df 91       	pop	r29
    197a:	cf 91       	pop	r28
    197c:	1f 91       	pop	r17
    197e:	0f 91       	pop	r16
    1980:	ff 90       	pop	r15
    1982:	ef 90       	pop	r14
    1984:	df 90       	pop	r13
    1986:	cf 90       	pop	r12
    1988:	bf 90       	pop	r11
    198a:	af 90       	pop	r10
    198c:	9f 90       	pop	r9
    198e:	8f 90       	pop	r8
    1990:	08 95       	ret

00001992 <_ZN3BTD25hci_write_class_of_deviceEv>:
    1992:	e3 e8       	ldi	r30, 0x83	; 131
    1994:	f4 e0       	ldi	r31, 0x04	; 4
    1996:	24 e2       	ldi	r18, 0x24	; 36
    1998:	20 83       	st	Z, r18
    199a:	2c e0       	ldi	r18, 0x0C	; 12
    199c:	21 83       	std	Z+1, r18	; 0x01
    199e:	23 e0       	ldi	r18, 0x03	; 3
    19a0:	22 83       	std	Z+2, r18	; 0x02
    19a2:	13 82       	std	Z+3, r1	; 0x03
    19a4:	21 e0       	ldi	r18, 0x01	; 1
    19a6:	24 83       	std	Z+4, r18	; 0x04
    19a8:	15 82       	std	Z+5, r1	; 0x05
    19aa:	46 e0       	ldi	r20, 0x06	; 6
    19ac:	50 e0       	ldi	r21, 0x00	; 0
    19ae:	bf 01       	movw	r22, r30
    19b0:	0e 94 f4 06 	call	0xde8	; 0xde8 <_ZN3BTD11HCI_CommandEPhj>
    19b4:	08 95       	ret

000019b6 <_ZN3BTD22hci_change_packet_typeEv>:
    19b6:	e3 e8       	ldi	r30, 0x83	; 131
    19b8:	f4 e0       	ldi	r31, 0x04	; 4
    19ba:	2f e0       	ldi	r18, 0x0F	; 15
    19bc:	20 83       	st	Z, r18
    19be:	24 e0       	ldi	r18, 0x04	; 4
    19c0:	21 83       	std	Z+1, r18	; 0x01
    19c2:	22 83       	std	Z+2, r18	; 0x02
    19c4:	2c e0       	ldi	r18, 0x0C	; 12
    19c6:	23 83       	std	Z+3, r18	; 0x03
    19c8:	14 82       	std	Z+4, r1	; 0x04
    19ca:	28 e1       	ldi	r18, 0x18	; 24
    19cc:	25 83       	std	Z+5, r18	; 0x05
    19ce:	2c ec       	ldi	r18, 0xCC	; 204
    19d0:	26 83       	std	Z+6, r18	; 0x06
    19d2:	47 e0       	ldi	r20, 0x07	; 7
    19d4:	50 e0       	ldi	r21, 0x00	; 0
    19d6:	bf 01       	movw	r22, r30
    19d8:	0e 94 f4 06 	call	0xde8	; 0xde8 <_ZN3BTD11HCI_CommandEPhj>
    19dc:	08 95       	ret

000019de <_ZN3BTD31hci_write_authentication_enableEv>:
    19de:	e3 e8       	ldi	r30, 0x83	; 131
    19e0:	f4 e0       	ldi	r31, 0x04	; 4
    19e2:	20 e2       	ldi	r18, 0x20	; 32
    19e4:	20 83       	st	Z, r18
    19e6:	2c e0       	ldi	r18, 0x0C	; 12
    19e8:	21 83       	std	Z+1, r18	; 0x01
    19ea:	21 e0       	ldi	r18, 0x01	; 1
    19ec:	22 83       	std	Z+2, r18	; 0x02
    19ee:	13 82       	std	Z+3, r1	; 0x03
    19f0:	44 e0       	ldi	r20, 0x04	; 4
    19f2:	50 e0       	ldi	r21, 0x00	; 0
    19f4:	bf 01       	movw	r22, r30
    19f6:	0e 94 f4 06 	call	0xde8	; 0xde8 <_ZN3BTD11HCI_CommandEPhj>
    19fa:	08 95       	ret

000019fc <_ZN3BTD8HCI_taskEv>:
    19fc:	df 92       	push	r13
    19fe:	ef 92       	push	r14
    1a00:	ff 92       	push	r15
    1a02:	0f 93       	push	r16
    1a04:	1f 93       	push	r17
    1a06:	cf 93       	push	r28
    1a08:	df 93       	push	r29
    1a0a:	fc 01       	movw	r30, r24
    1a0c:	e0 5b       	subi	r30, 0xB0	; 176
    1a0e:	ff 4f       	sbci	r31, 0xFF	; 255
    1a10:	e0 81       	ld	r30, Z
    1a12:	4e 2f       	mov	r20, r30
    1a14:	50 e0       	ldi	r21, 0x00	; 0
    1a16:	48 31       	cpi	r20, 0x18	; 24
    1a18:	51 05       	cpc	r21, r1
    1a1a:	08 f0       	brcs	.+2      	; 0x1a1e <_ZN3BTD8HCI_taskEv+0x22>
    1a1c:	79 c3       	rjmp	.+1778   	; 0x2110 <_ZN3BTD8HCI_taskEv+0x714>
    1a1e:	ec 01       	movw	r28, r24
    1a20:	fa 01       	movw	r30, r20
    1a22:	e6 58       	subi	r30, 0x86	; 134
    1a24:	ff 4f       	sbci	r31, 0xFF	; 255
    1a26:	0c 94 30 1e 	jmp	0x3c60	; 0x3c60 <__tablejump2__>
    1a2a:	fc 01       	movw	r30, r24
    1a2c:	ef 5a       	subi	r30, 0xAF	; 175
    1a2e:	ff 4f       	sbci	r31, 0xFF	; 255
    1a30:	80 81       	ld	r24, Z
    1a32:	91 81       	ldd	r25, Z+1	; 0x01
    1a34:	01 96       	adiw	r24, 0x01	; 1
    1a36:	91 83       	std	Z+1, r25	; 0x01
    1a38:	80 83       	st	Z, r24
    1a3a:	32 96       	adiw	r30, 0x02	; 2
    1a3c:	20 81       	ld	r18, Z
    1a3e:	31 81       	ldd	r19, Z+1	; 0x01
    1a40:	28 17       	cp	r18, r24
    1a42:	39 07       	cpc	r19, r25
    1a44:	08 f0       	brcs	.+2      	; 0x1a48 <_ZN3BTD8HCI_taskEv+0x4c>
    1a46:	64 c3       	rjmp	.+1736   	; 0x2110 <_ZN3BTD8HCI_taskEv+0x714>
    1a48:	ce 01       	movw	r24, r28
    1a4a:	0e 94 1e 07 	call	0xe3c	; 0xe3c <_ZN3BTD9hci_resetEv>
    1a4e:	fe 01       	movw	r30, r28
    1a50:	e0 5b       	subi	r30, 0xB0	; 176
    1a52:	ff 4f       	sbci	r31, 0xFF	; 255
    1a54:	81 e0       	ldi	r24, 0x01	; 1
    1a56:	80 83       	st	Z, r24
    1a58:	cf 5a       	subi	r28, 0xAF	; 175
    1a5a:	df 4f       	sbci	r29, 0xFF	; 255
    1a5c:	19 82       	std	Y+1, r1	; 0x01
    1a5e:	18 82       	st	Y, r1
    1a60:	57 c3       	rjmp	.+1710   	; 0x2110 <_ZN3BTD8HCI_taskEv+0x714>
    1a62:	fc 01       	movw	r30, r24
    1a64:	ef 5a       	subi	r30, 0xAF	; 175
    1a66:	ff 4f       	sbci	r31, 0xFF	; 255
    1a68:	80 81       	ld	r24, Z
    1a6a:	91 81       	ldd	r25, Z+1	; 0x01
    1a6c:	01 96       	adiw	r24, 0x01	; 1
    1a6e:	91 83       	std	Z+1, r25	; 0x01
    1a70:	80 83       	st	Z, r24
    1a72:	34 96       	adiw	r30, 0x04	; 4
    1a74:	20 81       	ld	r18, Z
    1a76:	20 ff       	sbrs	r18, 0
    1a78:	11 c0       	rjmp	.+34     	; 0x1a9c <_ZN3BTD8HCI_taskEv+0xa0>
    1a7a:	34 97       	sbiw	r30, 0x04	; 4
    1a7c:	11 82       	std	Z+1, r1	; 0x01
    1a7e:	10 82       	st	Z, r1
    1a80:	60 e8       	ldi	r22, 0x80	; 128
    1a82:	8b e1       	ldi	r24, 0x1B	; 27
    1a84:	95 e0       	ldi	r25, 0x05	; 5
    1a86:	0e 94 27 13 	call	0x264e	; 0x264e <_Z6NotifyPKch>
    1a8a:	fe 01       	movw	r30, r28
    1a8c:	e0 5b       	subi	r30, 0xB0	; 176
    1a8e:	ff 4f       	sbci	r31, 0xFF	; 255
    1a90:	82 e0       	ldi	r24, 0x02	; 2
    1a92:	80 83       	st	Z, r24
    1a94:	ce 01       	movw	r24, r28
    1a96:	0e 94 c9 0c 	call	0x1992	; 0x1992 <_ZN3BTD25hci_write_class_of_deviceEv>
    1a9a:	3a c3       	rjmp	.+1652   	; 0x2110 <_ZN3BTD8HCI_taskEv+0x714>
    1a9c:	fe 01       	movw	r30, r28
    1a9e:	ed 5a       	subi	r30, 0xAD	; 173
    1aa0:	ff 4f       	sbci	r31, 0xFF	; 255
    1aa2:	20 81       	ld	r18, Z
    1aa4:	31 81       	ldd	r19, Z+1	; 0x01
    1aa6:	28 17       	cp	r18, r24
    1aa8:	39 07       	cpc	r19, r25
    1aaa:	08 f0       	brcs	.+2      	; 0x1aae <_ZN3BTD8HCI_taskEv+0xb2>
    1aac:	31 c3       	rjmp	.+1634   	; 0x2110 <_ZN3BTD8HCI_taskEv+0x714>
    1aae:	c9 01       	movw	r24, r18
    1ab0:	88 0f       	add	r24, r24
    1ab2:	99 1f       	adc	r25, r25
    1ab4:	22 0f       	add	r18, r18
    1ab6:	33 1f       	adc	r19, r19
    1ab8:	22 0f       	add	r18, r18
    1aba:	33 1f       	adc	r19, r19
    1abc:	22 0f       	add	r18, r18
    1abe:	33 1f       	adc	r19, r19
    1ac0:	28 0f       	add	r18, r24
    1ac2:	39 1f       	adc	r19, r25
    1ac4:	21 3d       	cpi	r18, 0xD1	; 209
    1ac6:	87 e0       	ldi	r24, 0x07	; 7
    1ac8:	38 07       	cpc	r19, r24
    1aca:	18 f4       	brcc	.+6      	; 0x1ad2 <_ZN3BTD8HCI_taskEv+0xd6>
    1acc:	31 83       	std	Z+1, r19	; 0x01
    1ace:	20 83       	st	Z, r18
    1ad0:	07 c0       	rjmp	.+14     	; 0x1ae0 <_ZN3BTD8HCI_taskEv+0xe4>
    1ad2:	80 ed       	ldi	r24, 0xD0	; 208
    1ad4:	97 e0       	ldi	r25, 0x07	; 7
    1ad6:	fe 01       	movw	r30, r28
    1ad8:	ed 5a       	subi	r30, 0xAD	; 173
    1ada:	ff 4f       	sbci	r31, 0xFF	; 255
    1adc:	91 83       	std	Z+1, r25	; 0x01
    1ade:	80 83       	st	Z, r24
    1ae0:	60 e8       	ldi	r22, 0x80	; 128
    1ae2:	80 e0       	ldi	r24, 0x00	; 0
    1ae4:	95 e0       	ldi	r25, 0x05	; 5
    1ae6:	0e 94 27 13 	call	0x264e	; 0x264e <_Z6NotifyPKch>
    1aea:	fe 01       	movw	r30, r28
    1aec:	e0 5b       	subi	r30, 0xB0	; 176
    1aee:	ff 4f       	sbci	r31, 0xFF	; 255
    1af0:	10 82       	st	Z, r1
    1af2:	cf 5a       	subi	r28, 0xAF	; 175
    1af4:	df 4f       	sbci	r29, 0xFF	; 255
    1af6:	19 82       	std	Y+1, r1	; 0x01
    1af8:	18 82       	st	Y, r1
    1afa:	0a c3       	rjmp	.+1556   	; 0x2110 <_ZN3BTD8HCI_taskEv+0x714>
    1afc:	fc 01       	movw	r30, r24
    1afe:	eb 5a       	subi	r30, 0xAB	; 171
    1b00:	ff 4f       	sbci	r31, 0xFF	; 255
    1b02:	80 81       	ld	r24, Z
    1b04:	80 ff       	sbrs	r24, 0
    1b06:	0d c0       	rjmp	.+26     	; 0x1b22 <_ZN3BTD8HCI_taskEv+0x126>
    1b08:	60 e8       	ldi	r22, 0x80	; 128
    1b0a:	89 ee       	ldi	r24, 0xE9	; 233
    1b0c:	94 e0       	ldi	r25, 0x04	; 4
    1b0e:	0e 94 27 13 	call	0x264e	; 0x264e <_Z6NotifyPKch>
    1b12:	ce 01       	movw	r24, r28
    1b14:	0e 94 c9 0c 	call	0x1992	; 0x1992 <_ZN3BTD25hci_write_class_of_deviceEv>
    1b18:	c0 5b       	subi	r28, 0xB0	; 176
    1b1a:	df 4f       	sbci	r29, 0xFF	; 255
    1b1c:	82 e0       	ldi	r24, 0x02	; 2
    1b1e:	88 83       	st	Y, r24
    1b20:	f7 c2       	rjmp	.+1518   	; 0x2110 <_ZN3BTD8HCI_taskEv+0x714>
    1b22:	ce 01       	movw	r24, r28
    1b24:	0e 94 c9 0c 	call	0x1992	; 0x1992 <_ZN3BTD25hci_write_class_of_deviceEv>
    1b28:	c0 5b       	subi	r28, 0xB0	; 176
    1b2a:	df 4f       	sbci	r29, 0xFF	; 255
    1b2c:	82 e0       	ldi	r24, 0x02	; 2
    1b2e:	88 83       	st	Y, r24
    1b30:	ef c2       	rjmp	.+1502   	; 0x2110 <_ZN3BTD8HCI_taskEv+0x714>
    1b32:	fc 01       	movw	r30, r24
    1b34:	eb 5a       	subi	r30, 0xAB	; 171
    1b36:	ff 4f       	sbci	r31, 0xFF	; 255
    1b38:	80 81       	ld	r24, Z
    1b3a:	80 ff       	sbrs	r24, 0
    1b3c:	e9 c2       	rjmp	.+1490   	; 0x2110 <_ZN3BTD8HCI_taskEv+0x714>
    1b3e:	60 e8       	ldi	r22, 0x80	; 128
    1b40:	81 ed       	ldi	r24, 0xD1	; 209
    1b42:	94 e0       	ldi	r25, 0x04	; 4
    1b44:	0e 94 27 13 	call	0x264e	; 0x264e <_Z6NotifyPKch>
    1b48:	fe 01       	movw	r30, r28
    1b4a:	e0 5b       	subi	r30, 0xB0	; 176
    1b4c:	ff 4f       	sbci	r31, 0xFF	; 255
    1b4e:	83 e0       	ldi	r24, 0x03	; 3
    1b50:	80 83       	st	Z, r24
    1b52:	ce 01       	movw	r24, r28
    1b54:	0e 94 53 07 	call	0xea6	; 0xea6 <_ZN3BTD15hci_read_bdaddrEv>
    1b58:	db c2       	rjmp	.+1462   	; 0x2110 <_ZN3BTD8HCI_taskEv+0x714>
    1b5a:	fc 01       	movw	r30, r24
    1b5c:	eb 5a       	subi	r30, 0xAB	; 171
    1b5e:	ff 4f       	sbci	r31, 0xFF	; 255
    1b60:	80 81       	ld	r24, Z
    1b62:	85 ff       	sbrs	r24, 5
    1b64:	d5 c2       	rjmp	.+1450   	; 0x2110 <_ZN3BTD8HCI_taskEv+0x714>
    1b66:	60 e8       	ldi	r22, 0x80	; 128
    1b68:	85 eb       	ldi	r24, 0xB5	; 181
    1b6a:	94 e0       	ldi	r25, 0x04	; 4
    1b6c:	0e 94 27 13 	call	0x264e	; 0x264e <_Z6NotifyPKch>
    1b70:	8e 01       	movw	r16, r28
    1b72:	02 5f       	subi	r16, 0xF2	; 242
    1b74:	1f 4f       	sbci	r17, 0xFF	; 255
    1b76:	7e 01       	movw	r14, r28
    1b78:	99 e0       	ldi	r25, 0x09	; 9
    1b7a:	e9 0e       	add	r14, r25
    1b7c:	f1 1c       	adc	r15, r1
    1b7e:	60 e8       	ldi	r22, 0x80	; 128
    1b80:	d8 01       	movw	r26, r16
    1b82:	8e 91       	ld	r24, -X
    1b84:	8d 01       	movw	r16, r26
    1b86:	0e 94 3a 13 	call	0x2674	; 0x2674 <_Z10D_PrintHexhh>
    1b8a:	60 e8       	ldi	r22, 0x80	; 128
    1b8c:	83 eb       	ldi	r24, 0xB3	; 179
    1b8e:	94 e0       	ldi	r25, 0x04	; 4
    1b90:	0e 94 27 13 	call	0x264e	; 0x264e <_Z6NotifyPKch>
    1b94:	0e 15       	cp	r16, r14
    1b96:	1f 05       	cpc	r17, r15
    1b98:	91 f7       	brne	.-28     	; 0x1b7e <_ZN3BTD8HCI_taskEv+0x182>
    1b9a:	60 e8       	ldi	r22, 0x80	; 128
    1b9c:	88 85       	ldd	r24, Y+8	; 0x08
    1b9e:	0e 94 3a 13 	call	0x2674	; 0x2674 <_Z10D_PrintHexhh>
    1ba2:	ce 01       	movw	r24, r28
    1ba4:	0e 94 68 07 	call	0xed0	; 0xed0 <_ZN3BTD34hci_read_local_version_informationEv>
    1ba8:	c0 5b       	subi	r28, 0xB0	; 176
    1baa:	df 4f       	sbci	r29, 0xFF	; 255
    1bac:	84 e0       	ldi	r24, 0x04	; 4
    1bae:	88 83       	st	Y, r24
    1bb0:	af c2       	rjmp	.+1374   	; 0x2110 <_ZN3BTD8HCI_taskEv+0x714>
    1bb2:	fc 01       	movw	r30, r24
    1bb4:	eb 5a       	subi	r30, 0xAB	; 171
    1bb6:	ff 4f       	sbci	r31, 0xFF	; 255
    1bb8:	80 81       	ld	r24, Z
    1bba:	86 ff       	sbrs	r24, 6
    1bbc:	a9 c2       	rjmp	.+1362   	; 0x2110 <_ZN3BTD8HCI_taskEv+0x714>
    1bbe:	6c 81       	ldd	r22, Y+4	; 0x04
    1bc0:	7d 81       	ldd	r23, Y+5	; 0x05
    1bc2:	61 15       	cp	r22, r1
    1bc4:	71 05       	cpc	r23, r1
    1bc6:	41 f0       	breq	.+16     	; 0x1bd8 <_ZN3BTD8HCI_taskEv+0x1dc>
    1bc8:	ce 01       	movw	r24, r28
    1bca:	0e 94 e3 07 	call	0xfc6	; 0xfc6 <_ZN3BTD18hci_set_local_nameEPKc>
    1bce:	c0 5b       	subi	r28, 0xB0	; 176
    1bd0:	df 4f       	sbci	r29, 0xFF	; 255
    1bd2:	85 e0       	ldi	r24, 0x05	; 5
    1bd4:	88 83       	st	Y, r24
    1bd6:	9c c2       	rjmp	.+1336   	; 0x2110 <_ZN3BTD8HCI_taskEv+0x714>
    1bd8:	c0 5b       	subi	r28, 0xB0	; 176
    1bda:	df 4f       	sbci	r29, 0xFF	; 255
    1bdc:	87 e0       	ldi	r24, 0x07	; 7
    1bde:	88 83       	st	Y, r24
    1be0:	97 c2       	rjmp	.+1326   	; 0x2110 <_ZN3BTD8HCI_taskEv+0x714>
    1be2:	fc 01       	movw	r30, r24
    1be4:	eb 5a       	subi	r30, 0xAB	; 171
    1be6:	ff 4f       	sbci	r31, 0xFF	; 255
    1be8:	80 81       	ld	r24, Z
    1bea:	80 ff       	sbrs	r24, 0
    1bec:	91 c2       	rjmp	.+1314   	; 0x2110 <_ZN3BTD8HCI_taskEv+0x714>
    1bee:	60 e8       	ldi	r22, 0x80	; 128
    1bf0:	8c e9       	ldi	r24, 0x9C	; 156
    1bf2:	94 e0       	ldi	r25, 0x04	; 4
    1bf4:	0e 94 27 13 	call	0x264e	; 0x264e <_Z6NotifyPKch>
    1bf8:	8c 81       	ldd	r24, Y+4	; 0x04
    1bfa:	9d 81       	ldd	r25, Y+5	; 0x05
    1bfc:	0e 94 03 13 	call	0x2606	; 0x2606 <_Z16printStringCRNL1PKc>
    1c00:	ce 01       	movw	r24, r28
    1c02:	0e 94 30 07 	call	0xe60	; 0xe60 <_ZN3BTD21hci_write_scan_enableEv>
    1c06:	c0 5b       	subi	r28, 0xB0	; 176
    1c08:	df 4f       	sbci	r29, 0xFF	; 255
    1c0a:	87 e0       	ldi	r24, 0x07	; 7
    1c0c:	88 83       	st	Y, r24
    1c0e:	80 c2       	rjmp	.+1280   	; 0x2110 <_ZN3BTD8HCI_taskEv+0x714>
    1c10:	8c ad       	ldd	r24, Y+60	; 0x3c
    1c12:	81 11       	cpse	r24, r1
    1c14:	04 c0       	rjmp	.+8      	; 0x1c1e <_ZN3BTD8HCI_taskEv+0x222>
    1c16:	8f a9       	ldd	r24, Y+55	; 0x37
    1c18:	81 11       	cpse	r24, r1
    1c1a:	04 c0       	rjmp	.+8      	; 0x1c24 <_ZN3BTD8HCI_taskEv+0x228>
    1c1c:	16 c0       	rjmp	.+44     	; 0x1c4a <_ZN3BTD8HCI_taskEv+0x24e>
    1c1e:	8f a9       	ldd	r24, Y+55	; 0x37
    1c20:	88 23       	and	r24, r24
    1c22:	31 f0       	breq	.+12     	; 0x1c30 <_ZN3BTD8HCI_taskEv+0x234>
    1c24:	60 e8       	ldi	r22, 0x80	; 128
    1c26:	84 e1       	ldi	r24, 0x14	; 20
    1c28:	94 e0       	ldi	r25, 0x04	; 4
    1c2a:	0e 94 27 13 	call	0x264e	; 0x264e <_Z6NotifyPKch>
    1c2e:	05 c0       	rjmp	.+10     	; 0x1c3a <_ZN3BTD8HCI_taskEv+0x23e>
    1c30:	60 e8       	ldi	r22, 0x80	; 128
    1c32:	8b ee       	ldi	r24, 0xEB	; 235
    1c34:	93 e0       	ldi	r25, 0x03	; 3
    1c36:	0e 94 27 13 	call	0x264e	; 0x264e <_Z6NotifyPKch>
    1c3a:	ce 01       	movw	r24, r28
    1c3c:	0e 94 25 08 	call	0x104a	; 0x104a <_ZN3BTD11hci_inquiryEv>
    1c40:	c0 5b       	subi	r28, 0xB0	; 176
    1c42:	df 4f       	sbci	r29, 0xFF	; 255
    1c44:	88 e0       	ldi	r24, 0x08	; 8
    1c46:	88 83       	st	Y, r24
    1c48:	63 c2       	rjmp	.+1222   	; 0x2110 <_ZN3BTD8HCI_taskEv+0x714>
    1c4a:	c0 5b       	subi	r28, 0xB0	; 176
    1c4c:	df 4f       	sbci	r29, 0xFF	; 255
    1c4e:	8b e0       	ldi	r24, 0x0B	; 11
    1c50:	88 83       	st	Y, r24
    1c52:	5e c2       	rjmp	.+1212   	; 0x2110 <_ZN3BTD8HCI_taskEv+0x714>
    1c54:	fc 01       	movw	r30, r24
    1c56:	eb 5a       	subi	r30, 0xAB	; 171
    1c58:	ff 4f       	sbci	r31, 0xFF	; 255
    1c5a:	80 81       	ld	r24, Z
    1c5c:	87 ff       	sbrs	r24, 7
    1c5e:	58 c2       	rjmp	.+1200   	; 0x2110 <_ZN3BTD8HCI_taskEv+0x714>
    1c60:	ce 01       	movw	r24, r28
    1c62:	0e 94 45 08 	call	0x108a	; 0x108a <_ZN3BTD18hci_inquiry_cancelEv>
    1c66:	8f a9       	ldd	r24, Y+55	; 0x37
    1c68:	88 23       	and	r24, r24
    1c6a:	31 f0       	breq	.+12     	; 0x1c78 <_ZN3BTD8HCI_taskEv+0x27c>
    1c6c:	60 e8       	ldi	r22, 0x80	; 128
    1c6e:	8b ed       	ldi	r24, 0xDB	; 219
    1c70:	93 e0       	ldi	r25, 0x03	; 3
    1c72:	0e 94 27 13 	call	0x264e	; 0x264e <_Z6NotifyPKch>
    1c76:	05 c0       	rjmp	.+10     	; 0x1c82 <_ZN3BTD8HCI_taskEv+0x286>
    1c78:	60 e8       	ldi	r22, 0x80	; 128
    1c7a:	88 ec       	ldi	r24, 0xC8	; 200
    1c7c:	93 e0       	ldi	r25, 0x03	; 3
    1c7e:	0e 94 27 13 	call	0x264e	; 0x264e <_Z6NotifyPKch>
    1c82:	60 e8       	ldi	r22, 0x80	; 128
    1c84:	80 ea       	ldi	r24, 0xA0	; 160
    1c86:	93 e0       	ldi	r25, 0x03	; 3
    1c88:	0e 94 27 13 	call	0x264e	; 0x264e <_Z6NotifyPKch>
    1c8c:	8f a9       	ldd	r24, Y+55	; 0x37
    1c8e:	88 23       	and	r24, r24
    1c90:	31 f0       	breq	.+12     	; 0x1c9e <_ZN3BTD8HCI_taskEv+0x2a2>
    1c92:	60 e8       	ldi	r22, 0x80	; 128
    1c94:	8f e8       	ldi	r24, 0x8F	; 143
    1c96:	93 e0       	ldi	r25, 0x03	; 3
    1c98:	0e 94 27 13 	call	0x264e	; 0x264e <_Z6NotifyPKch>
    1c9c:	05 c0       	rjmp	.+10     	; 0x1ca8 <_ZN3BTD8HCI_taskEv+0x2ac>
    1c9e:	60 e8       	ldi	r22, 0x80	; 128
    1ca0:	8a e7       	ldi	r24, 0x7A	; 122
    1ca2:	93 e0       	ldi	r25, 0x03	; 3
    1ca4:	0e 94 27 13 	call	0x264e	; 0x264e <_Z6NotifyPKch>
    1ca8:	60 e8       	ldi	r22, 0x80	; 128
    1caa:	86 e5       	ldi	r24, 0x56	; 86
    1cac:	93 e0       	ldi	r25, 0x03	; 3
    1cae:	0e 94 27 13 	call	0x264e	; 0x264e <_Z6NotifyPKch>
    1cb2:	8f a9       	ldd	r24, Y+55	; 0x37
    1cb4:	88 23       	and	r24, r24
    1cb6:	31 f0       	breq	.+12     	; 0x1cc4 <_ZN3BTD8HCI_taskEv+0x2c8>
    1cb8:	60 e8       	ldi	r22, 0x80	; 128
    1cba:	8e e4       	ldi	r24, 0x4E	; 78
    1cbc:	93 e0       	ldi	r25, 0x03	; 3
    1cbe:	0e 94 27 13 	call	0x264e	; 0x264e <_Z6NotifyPKch>
    1cc2:	05 c0       	rjmp	.+10     	; 0x1cce <_ZN3BTD8HCI_taskEv+0x2d2>
    1cc4:	60 e8       	ldi	r22, 0x80	; 128
    1cc6:	87 e4       	ldi	r24, 0x47	; 71
    1cc8:	93 e0       	ldi	r25, 0x03	; 3
    1cca:	0e 94 27 13 	call	0x264e	; 0x264e <_Z6NotifyPKch>
    1cce:	fe 01       	movw	r30, r28
    1cd0:	e5 5b       	subi	r30, 0xB5	; 181
    1cd2:	ff 4f       	sbci	r31, 0xFF	; 255
    1cd4:	80 81       	ld	r24, Z
    1cd6:	88 23       	and	r24, r24
    1cd8:	41 f0       	breq	.+16     	; 0x1cea <_ZN3BTD8HCI_taskEv+0x2ee>
    1cda:	ce 01       	movw	r24, r28
    1cdc:	0e 94 ae 07 	call	0xf5c	; 0xf5c <_ZN3BTD15hci_remote_nameEv>
    1ce0:	c0 5b       	subi	r28, 0xB0	; 176
    1ce2:	df 4f       	sbci	r29, 0xFF	; 255
    1ce4:	8d e0       	ldi	r24, 0x0D	; 13
    1ce6:	88 83       	st	Y, r24
    1ce8:	13 c2       	rjmp	.+1062   	; 0x2110 <_ZN3BTD8HCI_taskEv+0x714>
    1cea:	c0 5b       	subi	r28, 0xB0	; 176
    1cec:	df 4f       	sbci	r29, 0xFF	; 255
    1cee:	89 e0       	ldi	r24, 0x09	; 9
    1cf0:	88 83       	st	Y, r24
    1cf2:	0e c2       	rjmp	.+1052   	; 0x2110 <_ZN3BTD8HCI_taskEv+0x714>
    1cf4:	fc 01       	movw	r30, r24
    1cf6:	eb 5a       	subi	r30, 0xAB	; 171
    1cf8:	ff 4f       	sbci	r31, 0xFF	; 255
    1cfa:	80 81       	ld	r24, Z
    1cfc:	80 ff       	sbrs	r24, 0
    1cfe:	08 c2       	rjmp	.+1040   	; 0x2110 <_ZN3BTD8HCI_taskEv+0x714>
    1d00:	8f a9       	ldd	r24, Y+55	; 0x37
    1d02:	88 23       	and	r24, r24
    1d04:	31 f0       	breq	.+12     	; 0x1d12 <_ZN3BTD8HCI_taskEv+0x316>
    1d06:	60 e8       	ldi	r22, 0x80	; 128
    1d08:	8f e2       	ldi	r24, 0x2F	; 47
    1d0a:	93 e0       	ldi	r25, 0x03	; 3
    1d0c:	0e 94 27 13 	call	0x264e	; 0x264e <_Z6NotifyPKch>
    1d10:	05 c0       	rjmp	.+10     	; 0x1d1c <_ZN3BTD8HCI_taskEv+0x320>
    1d12:	60 e8       	ldi	r22, 0x80	; 128
    1d14:	84 e1       	ldi	r24, 0x14	; 20
    1d16:	93 e0       	ldi	r25, 0x03	; 3
    1d18:	0e 94 27 13 	call	0x264e	; 0x264e <_Z6NotifyPKch>
    1d1c:	fe 01       	movw	r30, r28
    1d1e:	e5 5b       	subi	r30, 0xB5	; 181
    1d20:	ff 4f       	sbci	r31, 0xFF	; 255
    1d22:	10 82       	st	Z, r1
    1d24:	ce 01       	movw	r24, r28
    1d26:	0e 94 89 08 	call	0x1112	; 0x1112 <_ZN3BTD11hci_connectEv>
    1d2a:	c0 5b       	subi	r28, 0xB0	; 176
    1d2c:	df 4f       	sbci	r29, 0xFF	; 255
    1d2e:	8a e0       	ldi	r24, 0x0A	; 10
    1d30:	88 83       	st	Y, r24
    1d32:	ee c1       	rjmp	.+988    	; 0x2110 <_ZN3BTD8HCI_taskEv+0x714>
    1d34:	fc 01       	movw	r30, r24
    1d36:	eb 5a       	subi	r30, 0xAB	; 171
    1d38:	ff 4f       	sbci	r31, 0xFF	; 255
    1d3a:	80 81       	ld	r24, Z
    1d3c:	91 81       	ldd	r25, Z+1	; 0x01
    1d3e:	90 ff       	sbrs	r25, 0
    1d40:	e7 c1       	rjmp	.+974    	; 0x2110 <_ZN3BTD8HCI_taskEv+0x714>
    1d42:	81 ff       	sbrs	r24, 1
    1d44:	16 c0       	rjmp	.+44     	; 0x1d72 <_ZN3BTD8HCI_taskEv+0x376>
    1d46:	8f a9       	ldd	r24, Y+55	; 0x37
    1d48:	88 23       	and	r24, r24
    1d4a:	31 f0       	breq	.+12     	; 0x1d58 <_ZN3BTD8HCI_taskEv+0x35c>
    1d4c:	60 e8       	ldi	r22, 0x80	; 128
    1d4e:	8d ef       	ldi	r24, 0xFD	; 253
    1d50:	92 e0       	ldi	r25, 0x02	; 2
    1d52:	0e 94 27 13 	call	0x264e	; 0x264e <_Z6NotifyPKch>
    1d56:	05 c0       	rjmp	.+10     	; 0x1d62 <_ZN3BTD8HCI_taskEv+0x366>
    1d58:	60 e8       	ldi	r22, 0x80	; 128
    1d5a:	83 ee       	ldi	r24, 0xE3	; 227
    1d5c:	92 e0       	ldi	r25, 0x02	; 2
    1d5e:	0e 94 27 13 	call	0x264e	; 0x264e <_Z6NotifyPKch>
    1d62:	ce 01       	movw	r24, r28
    1d64:	0e 94 60 09 	call	0x12c0	; 0x12c0 <_ZN3BTD26hci_authentication_requestEv>
    1d68:	c0 5b       	subi	r28, 0xB0	; 176
    1d6a:	df 4f       	sbci	r29, 0xFF	; 255
    1d6c:	8b e0       	ldi	r24, 0x0B	; 11
    1d6e:	88 83       	st	Y, r24
    1d70:	cf c1       	rjmp	.+926    	; 0x2110 <_ZN3BTD8HCI_taskEv+0x714>
    1d72:	60 e8       	ldi	r22, 0x80	; 128
    1d74:	8e eb       	ldi	r24, 0xBE	; 190
    1d76:	92 e0       	ldi	r25, 0x02	; 2
    1d78:	0e 94 27 13 	call	0x264e	; 0x264e <_Z6NotifyPKch>
    1d7c:	ce 01       	movw	r24, r28
    1d7e:	0e 94 89 08 	call	0x1112	; 0x1112 <_ZN3BTD11hci_connectEv>
    1d82:	c6 c1       	rjmp	.+908    	; 0x2110 <_ZN3BTD8HCI_taskEv+0x714>
    1d84:	8d a9       	ldd	r24, Y+53	; 0x35
    1d86:	81 11       	cpse	r24, r1
    1d88:	c3 c1       	rjmp	.+902    	; 0x2110 <_ZN3BTD8HCI_taskEv+0x714>
    1d8a:	8f a9       	ldd	r24, Y+55	; 0x37
    1d8c:	81 11       	cpse	r24, r1
    1d8e:	c0 c1       	rjmp	.+896    	; 0x2110 <_ZN3BTD8HCI_taskEv+0x714>
    1d90:	8a ad       	ldd	r24, Y+58	; 0x3a
    1d92:	81 11       	cpse	r24, r1
    1d94:	bd c1       	rjmp	.+890    	; 0x2110 <_ZN3BTD8HCI_taskEv+0x714>
    1d96:	8c ad       	ldd	r24, Y+60	; 0x3c
    1d98:	81 11       	cpse	r24, r1
    1d9a:	ba c1       	rjmp	.+884    	; 0x2110 <_ZN3BTD8HCI_taskEv+0x714>
    1d9c:	60 e8       	ldi	r22, 0x80	; 128
    1d9e:	87 e9       	ldi	r24, 0x97	; 151
    1da0:	92 e0       	ldi	r25, 0x02	; 2
    1da2:	0e 94 27 13 	call	0x264e	; 0x264e <_Z6NotifyPKch>
    1da6:	ce 01       	movw	r24, r28
    1da8:	0e 94 30 07 	call	0xe60	; 0xe60 <_ZN3BTD21hci_write_scan_enableEv>
    1dac:	81 e0       	ldi	r24, 0x01	; 1
    1dae:	88 83       	st	Y, r24
    1db0:	c0 5b       	subi	r28, 0xB0	; 176
    1db2:	df 4f       	sbci	r29, 0xFF	; 255
    1db4:	8c e0       	ldi	r24, 0x0C	; 12
    1db6:	88 83       	st	Y, r24
    1db8:	ab c1       	rjmp	.+854    	; 0x2110 <_ZN3BTD8HCI_taskEv+0x714>
    1dba:	fc 01       	movw	r30, r24
    1dbc:	eb 5a       	subi	r30, 0xAB	; 171
    1dbe:	ff 4f       	sbci	r31, 0xFF	; 255
    1dc0:	80 81       	ld	r24, Z
    1dc2:	84 ff       	sbrs	r24, 4
    1dc4:	0e c0       	rjmp	.+28     	; 0x1de2 <_ZN3BTD8HCI_taskEv+0x3e6>
    1dc6:	18 82       	st	Y, r1
    1dc8:	60 e8       	ldi	r22, 0x80	; 128
    1dca:	89 e7       	ldi	r24, 0x79	; 121
    1dcc:	92 e0       	ldi	r25, 0x02	; 2
    1dce:	0e 94 27 13 	call	0x264e	; 0x264e <_Z6NotifyPKch>
    1dd2:	ce 01       	movw	r24, r28
    1dd4:	0e 94 ae 07 	call	0xf5c	; 0xf5c <_ZN3BTD15hci_remote_nameEv>
    1dd8:	c0 5b       	subi	r28, 0xB0	; 176
    1dda:	df 4f       	sbci	r29, 0xFF	; 255
    1ddc:	8d e0       	ldi	r24, 0x0D	; 13
    1dde:	88 83       	st	Y, r24
    1de0:	97 c1       	rjmp	.+814    	; 0x2110 <_ZN3BTD8HCI_taskEv+0x714>
    1de2:	82 ff       	sbrs	r24, 2
    1de4:	95 c1       	rjmp	.+810    	; 0x2110 <_ZN3BTD8HCI_taskEv+0x714>
    1de6:	c0 5b       	subi	r28, 0xB0	; 176
    1de8:	df 4f       	sbci	r29, 0xFF	; 255
    1dea:	81 e1       	ldi	r24, 0x11	; 17
    1dec:	88 83       	st	Y, r24
    1dee:	90 c1       	rjmp	.+800    	; 0x2110 <_ZN3BTD8HCI_taskEv+0x714>
    1df0:	fc 01       	movw	r30, r24
    1df2:	eb 5a       	subi	r30, 0xAB	; 171
    1df4:	ff 4f       	sbci	r31, 0xFF	; 255
    1df6:	80 81       	ld	r24, Z
    1df8:	83 ff       	sbrs	r24, 3
    1dfa:	8a c1       	rjmp	.+788    	; 0x2110 <_ZN3BTD8HCI_taskEv+0x714>
    1dfc:	60 e8       	ldi	r22, 0x80	; 128
    1dfe:	89 e6       	ldi	r24, 0x69	; 105
    1e00:	92 e0       	ldi	r25, 0x02	; 2
    1e02:	0e 94 27 13 	call	0x264e	; 0x264e <_Z6NotifyPKch>
    1e06:	f1 2c       	mov	r15, r1
    1e08:	8e 01       	movw	r16, r28
    1e0a:	0a 5e       	subi	r16, 0xEA	; 234
    1e0c:	1f 4f       	sbci	r17, 0xFF	; 255
    1e0e:	08 c0       	rjmp	.+16     	; 0x1e20 <_ZN3BTD8HCI_taskEv+0x424>
    1e10:	fe 01       	movw	r30, r28
    1e12:	ef 0d       	add	r30, r15
    1e14:	f1 1d       	adc	r31, r1
    1e16:	60 e8       	ldi	r22, 0x80	; 128
    1e18:	86 89       	ldd	r24, Z+22	; 0x16
    1e1a:	0e 94 3f 13 	call	0x267e	; 0x267e <_Z7NotifySch>
    1e1e:	f3 94       	inc	r15
    1e20:	d0 2e       	mov	r13, r16
    1e22:	e1 2e       	mov	r14, r17
    1e24:	f8 01       	movw	r30, r16
    1e26:	01 90       	ld	r0, Z+
    1e28:	00 20       	and	r0, r0
    1e2a:	e9 f7       	brne	.-6      	; 0x1e26 <_ZN3BTD8HCI_taskEv+0x42a>
    1e2c:	31 97       	sbiw	r30, 0x01	; 1
    1e2e:	e0 1b       	sub	r30, r16
    1e30:	f1 0b       	sbc	r31, r17
    1e32:	2f 2d       	mov	r18, r15
    1e34:	30 e0       	ldi	r19, 0x00	; 0
    1e36:	2e 17       	cp	r18, r30
    1e38:	3f 07       	cpc	r19, r31
    1e3a:	50 f3       	brcs	.-44     	; 0x1e10 <_ZN3BTD8HCI_taskEv+0x414>
    1e3c:	48 e0       	ldi	r20, 0x08	; 8
    1e3e:	50 e0       	ldi	r21, 0x00	; 0
    1e40:	6f e0       	ldi	r22, 0x0F	; 15
    1e42:	71 e0       	ldi	r23, 0x01	; 1
    1e44:	80 2f       	mov	r24, r16
    1e46:	91 2f       	mov	r25, r17
    1e48:	0e 94 5d 1e 	call	0x3cba	; 0x3cba <strncmp>
    1e4c:	89 2b       	or	r24, r25
    1e4e:	09 f0       	breq	.+2      	; 0x1e52 <_ZN3BTD8HCI_taskEv+0x456>
    1e50:	4a c0       	rjmp	.+148    	; 0x1ee6 <_ZN3BTD8HCI_taskEv+0x4ea>
    1e52:	81 e0       	ldi	r24, 0x01	; 1
    1e54:	8e ab       	std	Y+54, r24	; 0x36
    1e56:	18 ae       	std	Y+56, r1	; 0x38
    1e58:	19 ae       	std	Y+57, r1	; 0x39
    1e5a:	fe 01       	movw	r30, r28
    1e5c:	e6 5b       	subi	r30, 0xB6	; 182
    1e5e:	ff 4f       	sbci	r31, 0xFF	; 255
    1e60:	10 82       	st	Z, r1
    1e62:	60 e8       	ldi	r22, 0x80	; 128
    1e64:	81 e5       	ldi	r24, 0x51	; 81
    1e66:	92 e0       	ldi	r25, 0x02	; 2
    1e68:	0e 94 27 13 	call	0x264e	; 0x264e <_Z6NotifyPKch>
    1e6c:	46 e1       	ldi	r20, 0x16	; 22
    1e6e:	50 e0       	ldi	r21, 0x00	; 0
    1e70:	68 e1       	ldi	r22, 0x18	; 24
    1e72:	71 e0       	ldi	r23, 0x01	; 1
    1e74:	80 2f       	mov	r24, r16
    1e76:	91 2f       	mov	r25, r17
    1e78:	0e 94 5d 1e 	call	0x3cba	; 0x3cba <strncmp>
    1e7c:	89 2b       	or	r24, r25
    1e7e:	41 f4       	brne	.+16     	; 0x1e90 <_ZN3BTD8HCI_taskEv+0x494>
    1e80:	60 e8       	ldi	r22, 0x80	; 128
    1e82:	88 e3       	ldi	r24, 0x38	; 56
    1e84:	92 e0       	ldi	r25, 0x02	; 2
    1e86:	0e 94 27 13 	call	0x264e	; 0x264e <_Z6NotifyPKch>
    1e8a:	81 e0       	ldi	r24, 0x01	; 1
    1e8c:	88 af       	std	Y+56, r24	; 0x38
    1e8e:	2b c0       	rjmp	.+86     	; 0x1ee6 <_ZN3BTD8HCI_taskEv+0x4ea>
    1e90:	46 e1       	ldi	r20, 0x16	; 22
    1e92:	50 e0       	ldi	r21, 0x00	; 0
    1e94:	6f e2       	ldi	r22, 0x2F	; 47
    1e96:	71 e0       	ldi	r23, 0x01	; 1
    1e98:	80 2f       	mov	r24, r16
    1e9a:	91 2f       	mov	r25, r17
    1e9c:	0e 94 5d 1e 	call	0x3cba	; 0x3cba <strncmp>
    1ea0:	89 2b       	or	r24, r25
    1ea2:	69 f4       	brne	.+26     	; 0x1ebe <_ZN3BTD8HCI_taskEv+0x4c2>
    1ea4:	60 e8       	ldi	r22, 0x80	; 128
    1ea6:	80 e2       	ldi	r24, 0x20	; 32
    1ea8:	92 e0       	ldi	r25, 0x02	; 2
    1eaa:	0e 94 27 13 	call	0x264e	; 0x264e <_Z6NotifyPKch>
    1eae:	81 e0       	ldi	r24, 0x01	; 1
    1eb0:	fe 01       	movw	r30, r28
    1eb2:	e6 5b       	subi	r30, 0xB6	; 182
    1eb4:	ff 4f       	sbci	r31, 0xFF	; 255
    1eb6:	80 83       	st	Z, r24
    1eb8:	88 af       	std	Y+56, r24	; 0x38
    1eba:	89 af       	std	Y+57, r24	; 0x39
    1ebc:	14 c0       	rjmp	.+40     	; 0x1ee6 <_ZN3BTD8HCI_taskEv+0x4ea>
    1ebe:	43 e1       	ldi	r20, 0x13	; 19
    1ec0:	50 e0       	ldi	r21, 0x00	; 0
    1ec2:	66 e4       	ldi	r22, 0x46	; 70
    1ec4:	71 e0       	ldi	r23, 0x01	; 1
    1ec6:	80 2f       	mov	r24, r16
    1ec8:	91 2f       	mov	r25, r17
    1eca:	0e 94 5d 1e 	call	0x3cba	; 0x3cba <strncmp>
    1ece:	89 2b       	or	r24, r25
    1ed0:	51 f4       	brne	.+20     	; 0x1ee6 <_ZN3BTD8HCI_taskEv+0x4ea>
    1ed2:	60 e8       	ldi	r22, 0x80	; 128
    1ed4:	8b e0       	ldi	r24, 0x0B	; 11
    1ed6:	92 e0       	ldi	r25, 0x02	; 2
    1ed8:	0e 94 27 13 	call	0x264e	; 0x264e <_Z6NotifyPKch>
    1edc:	81 e0       	ldi	r24, 0x01	; 1
    1ede:	fe 01       	movw	r30, r28
    1ee0:	e6 5b       	subi	r30, 0xB6	; 182
    1ee2:	ff 4f       	sbci	r31, 0xFF	; 255
    1ee4:	80 83       	st	Z, r24
    1ee6:	fe 01       	movw	r30, r28
    1ee8:	e1 5b       	subi	r30, 0xB1	; 177
    1eea:	ff 4f       	sbci	r31, 0xFF	; 255
    1eec:	80 81       	ld	r24, Z
    1eee:	81 11       	cpse	r24, r1
    1ef0:	1c c0       	rjmp	.+56     	; 0x1f2a <_ZN3BTD8HCI_taskEv+0x52e>
    1ef2:	31 97       	sbiw	r30, 0x01	; 1
    1ef4:	80 81       	ld	r24, Z
    1ef6:	85 32       	cpi	r24, 0x25	; 37
    1ef8:	c1 f4       	brne	.+48     	; 0x1f2a <_ZN3BTD8HCI_taskEv+0x52e>
    1efa:	31 97       	sbiw	r30, 0x01	; 1
    1efc:	80 81       	ld	r24, Z
    1efe:	88 30       	cpi	r24, 0x08	; 8
    1f00:	a1 f4       	brne	.+40     	; 0x1f2a <_ZN3BTD8HCI_taskEv+0x52e>
    1f02:	43 e1       	ldi	r20, 0x13	; 19
    1f04:	50 e0       	ldi	r21, 0x00	; 0
    1f06:	6a e5       	ldi	r22, 0x5A	; 90
    1f08:	71 e0       	ldi	r23, 0x01	; 1
    1f0a:	8d 2d       	mov	r24, r13
    1f0c:	9e 2d       	mov	r25, r14
    1f0e:	0e 94 5d 1e 	call	0x3cba	; 0x3cba <strncmp>
    1f12:	89 2b       	or	r24, r25
    1f14:	51 f4       	brne	.+20     	; 0x1f2a <_ZN3BTD8HCI_taskEv+0x52e>
    1f16:	60 e8       	ldi	r22, 0x80	; 128
    1f18:	8c ee       	ldi	r24, 0xEC	; 236
    1f1a:	91 e0       	ldi	r25, 0x01	; 1
    1f1c:	0e 94 27 13 	call	0x264e	; 0x264e <_Z6NotifyPKch>
    1f20:	81 e0       	ldi	r24, 0x01	; 1
    1f22:	fe 01       	movw	r30, r28
    1f24:	e4 5b       	subi	r30, 0xB4	; 180
    1f26:	ff 4f       	sbci	r31, 0xFF	; 255
    1f28:	80 83       	st	Z, r24
    1f2a:	8f a9       	ldd	r24, Y+55	; 0x37
    1f2c:	88 23       	and	r24, r24
    1f2e:	59 f0       	breq	.+22     	; 0x1f46 <_ZN3BTD8HCI_taskEv+0x54a>
    1f30:	fe 01       	movw	r30, r28
    1f32:	e5 5b       	subi	r30, 0xB5	; 181
    1f34:	ff 4f       	sbci	r31, 0xFF	; 255
    1f36:	80 81       	ld	r24, Z
    1f38:	88 23       	and	r24, r24
    1f3a:	29 f0       	breq	.+10     	; 0x1f46 <_ZN3BTD8HCI_taskEv+0x54a>
    1f3c:	c0 5b       	subi	r28, 0xB0	; 176
    1f3e:	df 4f       	sbci	r29, 0xFF	; 255
    1f40:	89 e0       	ldi	r24, 0x09	; 9
    1f42:	88 83       	st	Y, r24
    1f44:	e5 c0       	rjmp	.+458    	; 0x2110 <_ZN3BTD8HCI_taskEv+0x714>
    1f46:	ce 01       	movw	r24, r28
    1f48:	0e 94 ef 0c 	call	0x19de	; 0x19de <_ZN3BTD31hci_write_authentication_enableEv>
    1f4c:	c0 5b       	subi	r28, 0xB0	; 176
    1f4e:	df 4f       	sbci	r29, 0xFF	; 255
    1f50:	86 e1       	ldi	r24, 0x16	; 22
    1f52:	88 83       	st	Y, r24
    1f54:	dd c0       	rjmp	.+442    	; 0x2110 <_ZN3BTD8HCI_taskEv+0x714>
    1f56:	fc 01       	movw	r30, r24
    1f58:	eb 5a       	subi	r30, 0xAB	; 171
    1f5a:	ff 4f       	sbci	r31, 0xFF	; 255
    1f5c:	80 81       	ld	r24, Z
    1f5e:	80 ff       	sbrs	r24, 0
    1f60:	d7 c0       	rjmp	.+430    	; 0x2110 <_ZN3BTD8HCI_taskEv+0x714>
    1f62:	60 e8       	ldi	r22, 0x80	; 128
    1f64:	8d ec       	ldi	r24, 0xCD	; 205
    1f66:	91 e0       	ldi	r25, 0x01	; 1
    1f68:	0e 94 27 13 	call	0x264e	; 0x264e <_Z6NotifyPKch>
    1f6c:	ce 01       	movw	r24, r28
    1f6e:	0e 94 7d 07 	call	0xefa	; 0xefa <_ZN3BTD21hci_accept_connectionEv>
    1f72:	c0 5b       	subi	r28, 0xB0	; 176
    1f74:	df 4f       	sbci	r29, 0xFF	; 255
    1f76:	8e e0       	ldi	r24, 0x0E	; 14
    1f78:	88 83       	st	Y, r24
    1f7a:	ca c0       	rjmp	.+404    	; 0x2110 <_ZN3BTD8HCI_taskEv+0x714>
    1f7c:	fc 01       	movw	r30, r24
    1f7e:	eb 5a       	subi	r30, 0xAB	; 171
    1f80:	ff 4f       	sbci	r31, 0xFF	; 255
    1f82:	80 81       	ld	r24, Z
    1f84:	81 ff       	sbrs	r24, 1
    1f86:	c4 c0       	rjmp	.+392    	; 0x2110 <_ZN3BTD8HCI_taskEv+0x714>
    1f88:	60 e8       	ldi	r22, 0x80	; 128
    1f8a:	85 eb       	ldi	r24, 0xB5	; 181
    1f8c:	91 e0       	ldi	r25, 0x01	; 1
    1f8e:	0e 94 27 13 	call	0x264e	; 0x264e <_Z6NotifyPKch>
    1f92:	8e 01       	movw	r16, r28
    1f94:	0a 5e       	subi	r16, 0xEA	; 234
    1f96:	1f 4f       	sbci	r17, 0xFF	; 255
    1f98:	7e 01       	movw	r14, r28
    1f9a:	b1 e1       	ldi	r27, 0x11	; 17
    1f9c:	eb 0e       	add	r14, r27
    1f9e:	f1 1c       	adc	r15, r1
    1fa0:	60 e8       	ldi	r22, 0x80	; 128
    1fa2:	f8 01       	movw	r30, r16
    1fa4:	82 91       	ld	r24, -Z
    1fa6:	8f 01       	movw	r16, r30
    1fa8:	0e 94 3a 13 	call	0x2674	; 0x2674 <_Z10D_PrintHexhh>
    1fac:	60 e8       	ldi	r22, 0x80	; 128
    1fae:	83 eb       	ldi	r24, 0xB3	; 179
    1fb0:	91 e0       	ldi	r25, 0x01	; 1
    1fb2:	0e 94 27 13 	call	0x264e	; 0x264e <_Z6NotifyPKch>
    1fb6:	0e 15       	cp	r16, r14
    1fb8:	1f 05       	cpc	r17, r15
    1fba:	91 f7       	brne	.-28     	; 0x1fa0 <_ZN3BTD8HCI_taskEv+0x5a4>
    1fbc:	60 e8       	ldi	r22, 0x80	; 128
    1fbe:	88 89       	ldd	r24, Y+16	; 0x10
    1fc0:	0e 94 3a 13 	call	0x2674	; 0x2674 <_Z10D_PrintHexhh>
    1fc4:	fe 01       	movw	r30, r28
    1fc6:	e4 5b       	subi	r30, 0xB4	; 180
    1fc8:	ff 4f       	sbci	r31, 0xFF	; 255
    1fca:	80 81       	ld	r24, Z
    1fcc:	88 23       	and	r24, r24
    1fce:	11 f0       	breq	.+4      	; 0x1fd4 <_ZN3BTD8HCI_taskEv+0x5d8>
    1fd0:	81 e0       	ldi	r24, 0x01	; 1
    1fd2:	8a af       	std	Y+58, r24	; 0x3a
    1fd4:	19 82       	std	Y+1, r1	; 0x01
    1fd6:	1a 82       	std	Y+2, r1	; 0x02
    1fd8:	1b 82       	std	Y+3, r1	; 0x03
    1fda:	fe 01       	movw	r30, r28
    1fdc:	eb 5a       	subi	r30, 0xAB	; 171
    1fde:	ff 4f       	sbci	r31, 0xFF	; 255
    1fe0:	11 82       	std	Z+1, r1	; 0x01
    1fe2:	10 82       	st	Z, r1
    1fe4:	c0 5b       	subi	r28, 0xB0	; 176
    1fe6:	df 4f       	sbci	r29, 0xFF	; 255
    1fe8:	87 e1       	ldi	r24, 0x17	; 23
    1fea:	88 83       	st	Y, r24
    1fec:	91 c0       	rjmp	.+290    	; 0x2110 <_ZN3BTD8HCI_taskEv+0x714>
    1fee:	fc 01       	movw	r30, r24
    1ff0:	eb 5a       	subi	r30, 0xAB	; 171
    1ff2:	ff 4f       	sbci	r31, 0xFF	; 255
    1ff4:	80 81       	ld	r24, Z
    1ff6:	91 81       	ldd	r25, Z+1	; 0x01
    1ff8:	93 ff       	sbrs	r25, 3
    1ffa:	05 c0       	rjmp	.+10     	; 0x2006 <_ZN3BTD8HCI_taskEv+0x60a>
    1ffc:	60 e8       	ldi	r22, 0x80	; 128
    1ffe:	8a e8       	ldi	r24, 0x8A	; 138
    2000:	91 e0       	ldi	r25, 0x01	; 1
    2002:	0e 94 27 13 	call	0x264e	; 0x264e <_Z6NotifyPKch>
    2006:	c0 5b       	subi	r28, 0xB0	; 176
    2008:	df 4f       	sbci	r29, 0xFF	; 255
    200a:	80 e1       	ldi	r24, 0x10	; 16
    200c:	88 83       	st	Y, r24
    200e:	80 c0       	rjmp	.+256    	; 0x2110 <_ZN3BTD8HCI_taskEv+0x714>
    2010:	fc 01       	movw	r30, r24
    2012:	eb 5a       	subi	r30, 0xAB	; 171
    2014:	ff 4f       	sbci	r31, 0xFF	; 255
    2016:	80 81       	ld	r24, Z
    2018:	91 81       	ldd	r25, Z+1	; 0x01
    201a:	92 ff       	sbrs	r25, 2
    201c:	79 c0       	rjmp	.+242    	; 0x2110 <_ZN3BTD8HCI_taskEv+0x714>
    201e:	60 e8       	ldi	r22, 0x80	; 128
    2020:	80 e7       	ldi	r24, 0x70	; 112
    2022:	91 e0       	ldi	r25, 0x01	; 1
    2024:	0e 94 27 13 	call	0x264e	; 0x264e <_Z6NotifyPKch>
    2028:	fe 01       	movw	r30, r28
    202a:	e0 5b       	subi	r30, 0xB0	; 176
    202c:	ff 4f       	sbci	r31, 0xFF	; 255
    202e:	84 e1       	ldi	r24, 0x14	; 20
    2030:	80 83       	st	Z, r24
    2032:	ce 01       	movw	r24, r28
    2034:	0e 94 ae 07 	call	0xf5c	; 0xf5c <_ZN3BTD15hci_remote_nameEv>
    2038:	6b c0       	rjmp	.+214    	; 0x2110 <_ZN3BTD8HCI_taskEv+0x714>
    203a:	fc 01       	movw	r30, r24
    203c:	eb 5a       	subi	r30, 0xAB	; 171
    203e:	ff 4f       	sbci	r31, 0xFF	; 255
    2040:	80 81       	ld	r24, Z
    2042:	83 ff       	sbrs	r24, 3
    2044:	65 c0       	rjmp	.+202    	; 0x2110 <_ZN3BTD8HCI_taskEv+0x714>
    2046:	60 e8       	ldi	r22, 0x80	; 128
    2048:	89 e5       	ldi	r24, 0x59	; 89
    204a:	91 e0       	ldi	r25, 0x01	; 1
    204c:	0e 94 27 13 	call	0x264e	; 0x264e <_Z6NotifyPKch>
    2050:	ce 01       	movw	r24, r28
    2052:	0e 94 db 0c 	call	0x19b6	; 0x19b6 <_ZN3BTD22hci_change_packet_typeEv>
    2056:	c0 5b       	subi	r28, 0xB0	; 176
    2058:	df 4f       	sbci	r29, 0xFF	; 255
    205a:	82 e1       	ldi	r24, 0x12	; 18
    205c:	88 83       	st	Y, r24
    205e:	58 c0       	rjmp	.+176    	; 0x2110 <_ZN3BTD8HCI_taskEv+0x714>
    2060:	fc 01       	movw	r30, r24
    2062:	eb 5a       	subi	r30, 0xAB	; 171
    2064:	ff 4f       	sbci	r31, 0xFF	; 255
    2066:	80 81       	ld	r24, Z
    2068:	91 81       	ldd	r25, Z+1	; 0x01
    206a:	91 ff       	sbrs	r25, 1
    206c:	05 c0       	rjmp	.+10     	; 0x2078 <_ZN3BTD8HCI_taskEv+0x67c>
    206e:	60 e8       	ldi	r22, 0x80	; 128
    2070:	83 e4       	ldi	r24, 0x43	; 67
    2072:	91 e0       	ldi	r25, 0x01	; 1
    2074:	0e 94 27 13 	call	0x264e	; 0x264e <_Z6NotifyPKch>
    2078:	c0 5b       	subi	r28, 0xB0	; 176
    207a:	df 4f       	sbci	r29, 0xFF	; 255
    207c:	80 e1       	ldi	r24, 0x10	; 16
    207e:	88 83       	st	Y, r24
    2080:	47 c0       	rjmp	.+142    	; 0x2110 <_ZN3BTD8HCI_taskEv+0x714>
    2082:	fc 01       	movw	r30, r24
    2084:	ef 5a       	subi	r30, 0xAF	; 175
    2086:	ff 4f       	sbci	r31, 0xFF	; 255
    2088:	20 81       	ld	r18, Z
    208a:	31 81       	ldd	r19, Z+1	; 0x01
    208c:	2f 5f       	subi	r18, 0xFF	; 255
    208e:	3f 4f       	sbci	r19, 0xFF	; 255
    2090:	29 3e       	cpi	r18, 0xE9	; 233
    2092:	f3 e0       	ldi	r31, 0x03	; 3
    2094:	3f 07       	cpc	r19, r31
    2096:	28 f4       	brcc	.+10     	; 0x20a2 <_ZN3BTD8HCI_taskEv+0x6a6>
    2098:	cf 5a       	subi	r28, 0xAF	; 175
    209a:	df 4f       	sbci	r29, 0xFF	; 255
    209c:	39 83       	std	Y+1, r19	; 0x01
    209e:	28 83       	st	Y, r18
    20a0:	37 c0       	rjmp	.+110    	; 0x2110 <_ZN3BTD8HCI_taskEv+0x714>
    20a2:	fc 01       	movw	r30, r24
    20a4:	ef 5a       	subi	r30, 0xAF	; 175
    20a6:	ff 4f       	sbci	r31, 0xFF	; 255
    20a8:	11 82       	std	Z+1, r1	; 0x01
    20aa:	10 82       	st	Z, r1
    20ac:	c0 5b       	subi	r28, 0xB0	; 176
    20ae:	df 4f       	sbci	r29, 0xFF	; 255
    20b0:	8b e0       	ldi	r24, 0x0B	; 11
    20b2:	88 83       	st	Y, r24
    20b4:	2d c0       	rjmp	.+90     	; 0x2110 <_ZN3BTD8HCI_taskEv+0x714>
    20b6:	fc 01       	movw	r30, r24
    20b8:	eb 5a       	subi	r30, 0xAB	; 171
    20ba:	ff 4f       	sbci	r31, 0xFF	; 255
    20bc:	80 81       	ld	r24, Z
    20be:	82 ff       	sbrs	r24, 2
    20c0:	27 c0       	rjmp	.+78     	; 0x2110 <_ZN3BTD8HCI_taskEv+0x714>
    20c2:	60 e8       	ldi	r22, 0x80	; 128
    20c4:	84 e2       	ldi	r24, 0x24	; 36
    20c6:	91 e0       	ldi	r25, 0x01	; 1
    20c8:	0e 94 27 13 	call	0x264e	; 0x264e <_Z6NotifyPKch>
    20cc:	fe 01       	movw	r30, r28
    20ce:	eb 5a       	subi	r30, 0xAB	; 171
    20d0:	ff 4f       	sbci	r31, 0xFF	; 255
    20d2:	11 82       	std	Z+1, r1	; 0x01
    20d4:	10 82       	st	Z, r1
    20d6:	80 e4       	ldi	r24, 0x40	; 64
    20d8:	e3 e8       	ldi	r30, 0x83	; 131
    20da:	f4 e0       	ldi	r31, 0x04	; 4
    20dc:	df 01       	movw	r26, r30
    20de:	98 2f       	mov	r25, r24
    20e0:	1d 92       	st	X+, r1
    20e2:	9a 95       	dec	r25
    20e4:	e9 f7       	brne	.-6      	; 0x20e0 <_ZN3BTD8HCI_taskEv+0x6e4>
    20e6:	fe 01       	movw	r30, r28
    20e8:	e8 5a       	subi	r30, 0xA8	; 168
    20ea:	ff 4f       	sbci	r31, 0xFF	; 255
    20ec:	df 01       	movw	r26, r30
    20ee:	1d 92       	st	X+, r1
    20f0:	8a 95       	dec	r24
    20f2:	e9 f7       	brne	.-6      	; 0x20ee <_ZN3BTD8HCI_taskEv+0x6f2>
    20f4:	1f aa       	std	Y+55, r1	; 0x37
    20f6:	1e aa       	std	Y+54, r1	; 0x36
    20f8:	1d aa       	std	Y+53, r1	; 0x35
    20fa:	3d 97       	sbiw	r30, 0x0d	; 13
    20fc:	10 82       	st	Z, r1
    20fe:	1c ae       	std	Y+60, r1	; 0x3c
    2100:	1b ae       	std	Y+59, r1	; 0x3b
    2102:	1a ae       	std	Y+58, r1	; 0x3a
    2104:	31 96       	adiw	r30, 0x01	; 1
    2106:	10 82       	st	Z, r1
    2108:	c0 5b       	subi	r28, 0xB0	; 176
    210a:	df 4f       	sbci	r29, 0xFF	; 255
    210c:	8b e0       	ldi	r24, 0x0B	; 11
    210e:	88 83       	st	Y, r24
    2110:	df 91       	pop	r29
    2112:	cf 91       	pop	r28
    2114:	1f 91       	pop	r17
    2116:	0f 91       	pop	r16
    2118:	ff 90       	pop	r15
    211a:	ef 90       	pop	r14
    211c:	df 90       	pop	r13
    211e:	08 95       	ret

00002120 <_ZN3BTD5BPollEv>:
    2120:	8f 92       	push	r8
    2122:	9f 92       	push	r9
    2124:	af 92       	push	r10
    2126:	bf 92       	push	r11
    2128:	cf 92       	push	r12
    212a:	df 92       	push	r13
    212c:	ef 92       	push	r14
    212e:	ff 92       	push	r15
    2130:	cf 93       	push	r28
    2132:	df 93       	push	r29
    2134:	ec 01       	movw	r28, r24
    2136:	0e 94 57 13 	call	0x26ae	; 0x26ae <_Z6millisv>
    213a:	82 2e       	mov	r8, r18
    213c:	93 2e       	mov	r9, r19
    213e:	a4 2e       	mov	r10, r20
    2140:	b5 2e       	mov	r11, r21
    2142:	fe 01       	movw	r30, r28
    2144:	fe 96       	adiw	r30, 0x3e	; 62
    2146:	80 81       	ld	r24, Z
    2148:	91 81       	ldd	r25, Z+1	; 0x01
    214a:	a2 81       	ldd	r26, Z+2	; 0x02
    214c:	b3 81       	ldd	r27, Z+3	; 0x03
    214e:	88 1a       	sub	r8, r24
    2150:	99 0a       	sbc	r9, r25
    2152:	aa 0a       	sbc	r10, r26
    2154:	bb 0a       	sbc	r11, r27
    2156:	42 f4       	brpl	.+16     	; 0x2168 <_ZN3BTD5BPollEv+0x48>
    2158:	80 91 55 02 	lds	r24, 0x0255	; 0x800255 <EVENT_RECEIVED>
    215c:	81 11       	cpse	r24, r1
    215e:	04 c0       	rjmp	.+8      	; 0x2168 <_ZN3BTD5BPollEv+0x48>
    2160:	80 91 54 02 	lds	r24, 0x0254	; 0x800254 <ACL_DATA_RECEIVED>
    2164:	88 23       	and	r24, r24
    2166:	a1 f0       	breq	.+40     	; 0x2190 <_ZN3BTD5BPollEv+0x70>
    2168:	80 91 55 02 	lds	r24, 0x0255	; 0x800255 <EVENT_RECEIVED>
    216c:	88 23       	and	r24, r24
    216e:	41 f0       	breq	.+16     	; 0x2180 <_ZN3BTD5BPollEv+0x60>
    2170:	10 92 55 02 	sts	0x0255, r1	; 0x800255 <EVENT_RECEIVED>
    2174:	ce 01       	movw	r24, r28
    2176:	0e 94 92 09 	call	0x1324	; 0x1324 <_ZN3BTD14HCI_event_taskEv>
    217a:	ce 01       	movw	r24, r28
    217c:	0e 94 fe 0c 	call	0x19fc	; 0x19fc <_ZN3BTD8HCI_taskEv>
    2180:	80 91 54 02 	lds	r24, 0x0254	; 0x800254 <ACL_DATA_RECEIVED>
    2184:	81 11       	cpse	r24, r1
    2186:	10 92 54 02 	sts	0x0254, r1	; 0x800254 <ACL_DATA_RECEIVED>
    218a:	ce 01       	movw	r24, r28
    218c:	0e 94 d8 06 	call	0xdb0	; 0xdb0 <_ZN3BTD14ACL_event_taskEv>
    2190:	0e 94 57 13 	call	0x26ae	; 0x26ae <_Z6millisv>
    2194:	82 2e       	mov	r8, r18
    2196:	93 2e       	mov	r9, r19
    2198:	a4 2e       	mov	r10, r20
    219a:	b5 2e       	mov	r11, r21
    219c:	fe 01       	movw	r30, r28
    219e:	fe 96       	adiw	r30, 0x3e	; 62
    21a0:	c8 5b       	subi	r28, 0xB8	; 184
    21a2:	df 4f       	sbci	r29, 0xFF	; 255
    21a4:	88 81       	ld	r24, Y
    21a6:	90 e0       	ldi	r25, 0x00	; 0
    21a8:	a0 e0       	ldi	r26, 0x00	; 0
    21aa:	b0 e0       	ldi	r27, 0x00	; 0
    21ac:	88 0e       	add	r8, r24
    21ae:	99 1e       	adc	r9, r25
    21b0:	aa 1e       	adc	r10, r26
    21b2:	bb 1e       	adc	r11, r27
    21b4:	80 82       	st	Z, r8
    21b6:	91 82       	std	Z+1, r9	; 0x01
    21b8:	a2 82       	std	Z+2, r10	; 0x02
    21ba:	b3 82       	std	Z+3, r11	; 0x03
    21bc:	80 e0       	ldi	r24, 0x00	; 0
    21be:	df 91       	pop	r29
    21c0:	cf 91       	pop	r28
    21c2:	ff 90       	pop	r15
    21c4:	ef 90       	pop	r14
    21c6:	df 90       	pop	r13
    21c8:	cf 90       	pop	r12
    21ca:	bf 90       	pop	r11
    21cc:	af 90       	pop	r10
    21ce:	9f 90       	pop	r9
    21d0:	8f 90       	pop	r8
    21d2:	08 95       	ret

000021d4 <_ZN3BTD13L2CAP_CommandEjPhhhh>:
    21d4:	8f 92       	push	r8
    21d6:	9f 92       	push	r9
    21d8:	af 92       	push	r10
    21da:	bf 92       	push	r11
    21dc:	cf 92       	push	r12
    21de:	df 92       	push	r13
    21e0:	ef 92       	push	r14
    21e2:	0f 93       	push	r16
    21e4:	1f 93       	push	r17
    21e6:	cf 93       	push	r28
    21e8:	df 93       	push	r29
    21ea:	cd b7       	in	r28, 0x3d	; 61
    21ec:	de b7       	in	r29, 0x3e	; 62
    21ee:	8d b6       	in	r8, 0x3d	; 61
    21f0:	9e b6       	in	r9, 0x3e	; 62
    21f2:	c2 2e       	mov	r12, r18
    21f4:	d1 2c       	mov	r13, r1
    21f6:	c6 01       	movw	r24, r12
    21f8:	08 96       	adiw	r24, 0x08	; 8
    21fa:	ed b7       	in	r30, 0x3d	; 61
    21fc:	fe b7       	in	r31, 0x3e	; 62
    21fe:	e8 1b       	sub	r30, r24
    2200:	f9 0b       	sbc	r31, r25
    2202:	0f b6       	in	r0, 0x3f	; 63
    2204:	f8 94       	cli
    2206:	fe bf       	out	0x3e, r31	; 62
    2208:	0f be       	out	0x3f, r0	; 63
    220a:	ed bf       	out	0x3d, r30	; 61
    220c:	8d b7       	in	r24, 0x3d	; 61
    220e:	9e b7       	in	r25, 0x3e	; 62
    2210:	01 96       	adiw	r24, 0x01	; 1
    2212:	5c 01       	movw	r10, r24
    2214:	61 83       	std	Z+1, r22	; 0x01
    2216:	7f 70       	andi	r23, 0x0F	; 15
    2218:	70 62       	ori	r23, 0x20	; 32
    221a:	fc 01       	movw	r30, r24
    221c:	71 83       	std	Z+1, r23	; 0x01
    221e:	84 e0       	ldi	r24, 0x04	; 4
    2220:	82 0f       	add	r24, r18
    2222:	82 83       	std	Z+2, r24	; 0x02
    2224:	c6 01       	movw	r24, r12
    2226:	04 96       	adiw	r24, 0x04	; 4
    2228:	93 83       	std	Z+3, r25	; 0x03
    222a:	24 83       	std	Z+4, r18	; 0x04
    222c:	15 82       	std	Z+5, r1	; 0x05
    222e:	06 83       	std	Z+6, r16	; 0x06
    2230:	e7 82       	std	Z+7, r14	; 0x07
    2232:	c1 14       	cp	r12, r1
    2234:	d1 04       	cpc	r13, r1
    2236:	69 f0       	breq	.+26     	; 0x2252 <_ZN3BTD13L2CAP_CommandEjPhhhh+0x7e>
    2238:	a4 2f       	mov	r26, r20
    223a:	b5 2f       	mov	r27, r21
    223c:	38 96       	adiw	r30, 0x08	; 8
    223e:	96 01       	movw	r18, r12
    2240:	28 5f       	subi	r18, 0xF8	; 248
    2242:	3f 4f       	sbci	r19, 0xFF	; 255
    2244:	2a 0d       	add	r18, r10
    2246:	3b 1d       	adc	r19, r11
    2248:	8d 91       	ld	r24, X+
    224a:	81 93       	st	Z+, r24
    224c:	e2 17       	cp	r30, r18
    224e:	f3 07       	cpc	r31, r19
    2250:	d9 f7       	brne	.-10     	; 0x2248 <_ZN3BTD13L2CAP_CommandEjPhhhh+0x74>
    2252:	82 e0       	ldi	r24, 0x02	; 2
    2254:	0e 94 bd 12 	call	0x257a	; 0x257a <_Z15USART0_Transmith>
    2258:	85 01       	movw	r16, r10
    225a:	f8 e0       	ldi	r31, 0x08	; 8
    225c:	cf 0e       	add	r12, r31
    225e:	d1 1c       	adc	r13, r1
    2260:	ac 0c       	add	r10, r12
    2262:	bd 1c       	adc	r11, r13
    2264:	f8 01       	movw	r30, r16
    2266:	81 91       	ld	r24, Z+
    2268:	8f 01       	movw	r16, r30
    226a:	0e 94 bd 12 	call	0x257a	; 0x257a <_Z15USART0_Transmith>
    226e:	0a 15       	cp	r16, r10
    2270:	1b 05       	cpc	r17, r11
    2272:	c1 f7       	brne	.-16     	; 0x2264 <_ZN3BTD13L2CAP_CommandEjPhhhh+0x90>
    2274:	0f b6       	in	r0, 0x3f	; 63
    2276:	f8 94       	cli
    2278:	9e be       	out	0x3e, r9	; 62
    227a:	0f be       	out	0x3f, r0	; 63
    227c:	8d be       	out	0x3d, r8	; 61
    227e:	df 91       	pop	r29
    2280:	cf 91       	pop	r28
    2282:	1f 91       	pop	r17
    2284:	0f 91       	pop	r16
    2286:	ef 90       	pop	r14
    2288:	df 90       	pop	r13
    228a:	cf 90       	pop	r12
    228c:	bf 90       	pop	r11
    228e:	af 90       	pop	r10
    2290:	9f 90       	pop	r9
    2292:	8f 90       	pop	r8
    2294:	08 95       	ret

00002296 <_ZN3BTD25l2cap_connection_responseEjhPhS0_h>:

void BTD::l2cap_connection_response(uint16_t handle, uint8_t rxid, uint8_t* dcid, uint8_t* scid, uint8_t result) {
    2296:	ef 92       	push	r14
    2298:	0f 93       	push	r16
    229a:	1f 93       	push	r17
    229c:	cf 93       	push	r28
    229e:	df 93       	push	r29
    22a0:	d8 01       	movw	r26, r16
        l2capoutbuf[0] = L2CAP_CMD_CONNECTION_RESPONSE; // Code
    22a2:	fc 01       	movw	r30, r24
    22a4:	e8 56       	subi	r30, 0x68	; 104
    22a6:	ff 4f       	sbci	r31, 0xFF	; 255
    22a8:	53 e0       	ldi	r21, 0x03	; 3
    22aa:	50 83       	st	Z, r21
        l2capoutbuf[1] = rxid; // Identifier
    22ac:	ec 01       	movw	r28, r24
    22ae:	c7 56       	subi	r28, 0x67	; 103
    22b0:	df 4f       	sbci	r29, 0xFF	; 255
    22b2:	48 83       	st	Y, r20
        l2capoutbuf[2] = 0x08; // Length
    22b4:	21 96       	adiw	r28, 0x01	; 1
    22b6:	48 e0       	ldi	r20, 0x08	; 8
    22b8:	48 83       	st	Y, r20
        l2capoutbuf[3] = 0x00;
    22ba:	21 96       	adiw	r28, 0x01	; 1
    22bc:	18 82       	st	Y, r1
        l2capoutbuf[4] = dcid[0]; // Destination CID
    22be:	e9 01       	movw	r28, r18
    22c0:	48 81       	ld	r20, Y
    22c2:	ec 01       	movw	r28, r24
    22c4:	c4 56       	subi	r28, 0x64	; 100
    22c6:	df 4f       	sbci	r29, 0xFF	; 255
    22c8:	48 83       	st	Y, r20
        l2capoutbuf[5] = dcid[1];
    22ca:	e9 01       	movw	r28, r18
    22cc:	29 81       	ldd	r18, Y+1	; 0x01
    22ce:	ec 01       	movw	r28, r24
    22d0:	c3 56       	subi	r28, 0x63	; 99
    22d2:	df 4f       	sbci	r29, 0xFF	; 255
    22d4:	28 83       	st	Y, r18
        l2capoutbuf[6] = scid[0]; // Source CID
    22d6:	2c 91       	ld	r18, X
    22d8:	21 96       	adiw	r28, 0x01	; 1
    22da:	28 83       	st	Y, r18
        l2capoutbuf[7] = scid[1];
    22dc:	11 96       	adiw	r26, 0x01	; 1
    22de:	2c 91       	ld	r18, X
    22e0:	dc 01       	movw	r26, r24
    22e2:	a1 56       	subi	r26, 0x61	; 97
    22e4:	bf 4f       	sbci	r27, 0xFF	; 255
    22e6:	2c 93       	st	X, r18
        l2capoutbuf[8] = result; // Result: Pending or Success
    22e8:	11 96       	adiw	r26, 0x01	; 1
    22ea:	ec 92       	st	X, r14
        l2capoutbuf[9] = 0x00;
    22ec:	11 96       	adiw	r26, 0x01	; 1
    22ee:	1c 92       	st	X, r1
        l2capoutbuf[10] = 0x00; // No further information
    22f0:	11 96       	adiw	r26, 0x01	; 1
    22f2:	1c 92       	st	X, r1
        l2capoutbuf[11] = 0x00;
    22f4:	11 96       	adiw	r26, 0x01	; 1
    22f6:	1c 92       	st	X, r1

        L2CAP_Command(handle, l2capoutbuf, 12);
    22f8:	e1 2c       	mov	r14, r1
    22fa:	01 e0       	ldi	r16, 0x01	; 1
    22fc:	2c e0       	ldi	r18, 0x0C	; 12
    22fe:	af 01       	movw	r20, r30
    2300:	0e 94 ea 10 	call	0x21d4	; 0x21d4 <_ZN3BTD13L2CAP_CommandEjPhhhh>
}
    2304:	df 91       	pop	r29
    2306:	cf 91       	pop	r28
    2308:	1f 91       	pop	r17
    230a:	0f 91       	pop	r16
    230c:	ef 90       	pop	r14
    230e:	08 95       	ret

00002310 <_ZN3BTD20l2cap_config_requestEjhPh>:

void BTD::l2cap_config_request(uint16_t handle, uint8_t rxid, uint8_t* dcid) {
    2310:	ef 92       	push	r14
    2312:	0f 93       	push	r16
        l2capoutbuf[0] = L2CAP_CMD_CONFIG_REQUEST; // Code
    2314:	fc 01       	movw	r30, r24
    2316:	e8 56       	subi	r30, 0x68	; 104
    2318:	ff 4f       	sbci	r31, 0xFF	; 255
    231a:	54 e0       	ldi	r21, 0x04	; 4
    231c:	50 83       	st	Z, r21
        l2capoutbuf[1] = rxid; // Identifier
    231e:	dc 01       	movw	r26, r24
    2320:	a7 56       	subi	r26, 0x67	; 103
    2322:	bf 4f       	sbci	r27, 0xFF	; 255
    2324:	4c 93       	st	X, r20
        l2capoutbuf[2] = 0x08; // Length
    2326:	11 96       	adiw	r26, 0x01	; 1
    2328:	48 e0       	ldi	r20, 0x08	; 8
    232a:	4c 93       	st	X, r20
        l2capoutbuf[3] = 0x00;
    232c:	11 96       	adiw	r26, 0x01	; 1
    232e:	1c 92       	st	X, r1
        l2capoutbuf[4] = dcid[0]; // Destination CID
    2330:	d9 01       	movw	r26, r18
    2332:	4c 91       	ld	r20, X
    2334:	dc 01       	movw	r26, r24
    2336:	a4 56       	subi	r26, 0x64	; 100
    2338:	bf 4f       	sbci	r27, 0xFF	; 255
    233a:	4c 93       	st	X, r20
        l2capoutbuf[5] = dcid[1];
    233c:	d9 01       	movw	r26, r18
    233e:	11 96       	adiw	r26, 0x01	; 1
    2340:	2c 91       	ld	r18, X
    2342:	dc 01       	movw	r26, r24
    2344:	a3 56       	subi	r26, 0x63	; 99
    2346:	bf 4f       	sbci	r27, 0xFF	; 255
    2348:	2c 93       	st	X, r18
        l2capoutbuf[6] = 0x00; // Flags
    234a:	11 96       	adiw	r26, 0x01	; 1
    234c:	1c 92       	st	X, r1
        l2capoutbuf[7] = 0x00;
    234e:	11 96       	adiw	r26, 0x01	; 1
    2350:	1c 92       	st	X, r1
        l2capoutbuf[8] = 0x01; // Config Opt: type = MTU (Maximum Transmission Unit) - Hint
    2352:	11 96       	adiw	r26, 0x01	; 1
    2354:	21 e0       	ldi	r18, 0x01	; 1
    2356:	2c 93       	st	X, r18
        l2capoutbuf[9] = 0x02; // Config Opt: length
    2358:	11 96       	adiw	r26, 0x01	; 1
    235a:	22 e0       	ldi	r18, 0x02	; 2
    235c:	2c 93       	st	X, r18
        l2capoutbuf[10] = 0xFF; // MTU
    235e:	11 96       	adiw	r26, 0x01	; 1
    2360:	2f ef       	ldi	r18, 0xFF	; 255
    2362:	2c 93       	st	X, r18
        l2capoutbuf[11] = 0xFF;
    2364:	11 96       	adiw	r26, 0x01	; 1
    2366:	2c 93       	st	X, r18

        L2CAP_Command(handle, l2capoutbuf, 12);
    2368:	e1 2c       	mov	r14, r1
    236a:	01 e0       	ldi	r16, 0x01	; 1
    236c:	2c e0       	ldi	r18, 0x0C	; 12
    236e:	af 01       	movw	r20, r30
    2370:	0e 94 ea 10 	call	0x21d4	; 0x21d4 <_ZN3BTD13L2CAP_CommandEjPhhhh>
}
    2374:	0f 91       	pop	r16
    2376:	ef 90       	pop	r14
    2378:	08 95       	ret

0000237a <_ZN3BTD21l2cap_config_responseEjhPh>:

void BTD::l2cap_config_response(uint16_t handle, uint8_t rxid, uint8_t* scid) {
    237a:	ef 92       	push	r14
    237c:	0f 93       	push	r16
        l2capoutbuf[0] = L2CAP_CMD_CONFIG_RESPONSE; // Code
    237e:	fc 01       	movw	r30, r24
    2380:	e8 56       	subi	r30, 0x68	; 104
    2382:	ff 4f       	sbci	r31, 0xFF	; 255
    2384:	55 e0       	ldi	r21, 0x05	; 5
    2386:	50 83       	st	Z, r21
        l2capoutbuf[1] = rxid; // Identifier
    2388:	dc 01       	movw	r26, r24
    238a:	a7 56       	subi	r26, 0x67	; 103
    238c:	bf 4f       	sbci	r27, 0xFF	; 255
    238e:	4c 93       	st	X, r20
        l2capoutbuf[2] = 0x0A; // Length
    2390:	11 96       	adiw	r26, 0x01	; 1
    2392:	4a e0       	ldi	r20, 0x0A	; 10
    2394:	4c 93       	st	X, r20
        l2capoutbuf[3] = 0x00;
    2396:	11 96       	adiw	r26, 0x01	; 1
    2398:	1c 92       	st	X, r1
        l2capoutbuf[4] = scid[0]; // Source CID
    239a:	d9 01       	movw	r26, r18
    239c:	4c 91       	ld	r20, X
    239e:	dc 01       	movw	r26, r24
    23a0:	a4 56       	subi	r26, 0x64	; 100
    23a2:	bf 4f       	sbci	r27, 0xFF	; 255
    23a4:	4c 93       	st	X, r20
        l2capoutbuf[5] = scid[1];
    23a6:	d9 01       	movw	r26, r18
    23a8:	11 96       	adiw	r26, 0x01	; 1
    23aa:	2c 91       	ld	r18, X
    23ac:	dc 01       	movw	r26, r24
    23ae:	a3 56       	subi	r26, 0x63	; 99
    23b0:	bf 4f       	sbci	r27, 0xFF	; 255
    23b2:	2c 93       	st	X, r18
        l2capoutbuf[6] = 0x00; // Flag
    23b4:	11 96       	adiw	r26, 0x01	; 1
    23b6:	1c 92       	st	X, r1
        l2capoutbuf[7] = 0x00;
    23b8:	11 96       	adiw	r26, 0x01	; 1
    23ba:	1c 92       	st	X, r1
        l2capoutbuf[8] = 0x00; // Result
    23bc:	11 96       	adiw	r26, 0x01	; 1
    23be:	1c 92       	st	X, r1
        l2capoutbuf[9] = 0x00;
    23c0:	11 96       	adiw	r26, 0x01	; 1
    23c2:	1c 92       	st	X, r1
        l2capoutbuf[10] = 0x01; // Config
    23c4:	11 96       	adiw	r26, 0x01	; 1
    23c6:	21 e0       	ldi	r18, 0x01	; 1
    23c8:	2c 93       	st	X, r18
        l2capoutbuf[11] = 0x02;
    23ca:	11 96       	adiw	r26, 0x01	; 1
    23cc:	22 e0       	ldi	r18, 0x02	; 2
    23ce:	2c 93       	st	X, r18
        l2capoutbuf[12] = 0xA0;
    23d0:	11 96       	adiw	r26, 0x01	; 1
    23d2:	30 ea       	ldi	r19, 0xA0	; 160
    23d4:	3c 93       	st	X, r19
        l2capoutbuf[13] = 0x02;
    23d6:	11 96       	adiw	r26, 0x01	; 1
    23d8:	2c 93       	st	X, r18

        L2CAP_Command(handle, l2capoutbuf, 14);
    23da:	e1 2c       	mov	r14, r1
    23dc:	01 e0       	ldi	r16, 0x01	; 1
    23de:	2e e0       	ldi	r18, 0x0E	; 14
    23e0:	af 01       	movw	r20, r30
    23e2:	0e 94 ea 10 	call	0x21d4	; 0x21d4 <_ZN3BTD13L2CAP_CommandEjPhhhh>
}
    23e6:	0f 91       	pop	r16
    23e8:	ef 90       	pop	r14
    23ea:	08 95       	ret

000023ec <_ZN3BTD27l2cap_disconnection_requestEjhPhS0_>:

void BTD::l2cap_disconnection_request(uint16_t handle, uint8_t rxid, uint8_t* dcid, uint8_t* scid) {
    23ec:	ef 92       	push	r14
    23ee:	0f 93       	push	r16
    23f0:	1f 93       	push	r17
    23f2:	cf 93       	push	r28
    23f4:	df 93       	push	r29
    23f6:	d8 01       	movw	r26, r16
        l2capoutbuf[0] = L2CAP_CMD_DISCONNECT_REQUEST; // Code
    23f8:	fc 01       	movw	r30, r24
    23fa:	e8 56       	subi	r30, 0x68	; 104
    23fc:	ff 4f       	sbci	r31, 0xFF	; 255
    23fe:	56 e0       	ldi	r21, 0x06	; 6
    2400:	50 83       	st	Z, r21
        l2capoutbuf[1] = rxid; // Identifier
    2402:	ec 01       	movw	r28, r24
    2404:	c7 56       	subi	r28, 0x67	; 103
    2406:	df 4f       	sbci	r29, 0xFF	; 255
    2408:	48 83       	st	Y, r20
        l2capoutbuf[2] = 0x04; // Length
    240a:	21 96       	adiw	r28, 0x01	; 1
    240c:	44 e0       	ldi	r20, 0x04	; 4
    240e:	48 83       	st	Y, r20
        l2capoutbuf[3] = 0x00;
    2410:	21 96       	adiw	r28, 0x01	; 1
    2412:	18 82       	st	Y, r1
        l2capoutbuf[4] = dcid[0];
    2414:	e9 01       	movw	r28, r18
    2416:	48 81       	ld	r20, Y
    2418:	ec 01       	movw	r28, r24
    241a:	c4 56       	subi	r28, 0x64	; 100
    241c:	df 4f       	sbci	r29, 0xFF	; 255
    241e:	48 83       	st	Y, r20
        l2capoutbuf[5] = dcid[1];
    2420:	e9 01       	movw	r28, r18
    2422:	29 81       	ldd	r18, Y+1	; 0x01
    2424:	ec 01       	movw	r28, r24
    2426:	c3 56       	subi	r28, 0x63	; 99
    2428:	df 4f       	sbci	r29, 0xFF	; 255
    242a:	28 83       	st	Y, r18
        l2capoutbuf[6] = scid[0];
    242c:	2c 91       	ld	r18, X
    242e:	21 96       	adiw	r28, 0x01	; 1
    2430:	28 83       	st	Y, r18
        l2capoutbuf[7] = scid[1];
    2432:	11 96       	adiw	r26, 0x01	; 1
    2434:	2c 91       	ld	r18, X
    2436:	dc 01       	movw	r26, r24
    2438:	a1 56       	subi	r26, 0x61	; 97
    243a:	bf 4f       	sbci	r27, 0xFF	; 255
    243c:	2c 93       	st	X, r18

        L2CAP_Command(handle, l2capoutbuf, 8);
    243e:	e1 2c       	mov	r14, r1
    2440:	01 e0       	ldi	r16, 0x01	; 1
    2442:	28 e0       	ldi	r18, 0x08	; 8
    2444:	af 01       	movw	r20, r30
    2446:	0e 94 ea 10 	call	0x21d4	; 0x21d4 <_ZN3BTD13L2CAP_CommandEjPhhhh>
}
    244a:	df 91       	pop	r29
    244c:	cf 91       	pop	r28
    244e:	1f 91       	pop	r17
    2450:	0f 91       	pop	r16
    2452:	ef 90       	pop	r14
    2454:	08 95       	ret

00002456 <_ZN3BTD28l2cap_disconnection_responseEjhPhS0_>:

void BTD::l2cap_disconnection_response(uint16_t handle, uint8_t rxid, uint8_t* dcid, uint8_t* scid) {
    2456:	ef 92       	push	r14
    2458:	0f 93       	push	r16
    245a:	1f 93       	push	r17
    245c:	cf 93       	push	r28
    245e:	df 93       	push	r29
    2460:	d8 01       	movw	r26, r16
        l2capoutbuf[0] = L2CAP_CMD_DISCONNECT_RESPONSE; // Code
    2462:	fc 01       	movw	r30, r24
    2464:	e8 56       	subi	r30, 0x68	; 104
    2466:	ff 4f       	sbci	r31, 0xFF	; 255
    2468:	57 e0       	ldi	r21, 0x07	; 7
    246a:	50 83       	st	Z, r21
        l2capoutbuf[1] = rxid; // Identifier
    246c:	ec 01       	movw	r28, r24
    246e:	c7 56       	subi	r28, 0x67	; 103
    2470:	df 4f       	sbci	r29, 0xFF	; 255
    2472:	48 83       	st	Y, r20
        l2capoutbuf[2] = 0x04; // Length
    2474:	21 96       	adiw	r28, 0x01	; 1
    2476:	44 e0       	ldi	r20, 0x04	; 4
    2478:	48 83       	st	Y, r20
        l2capoutbuf[3] = 0x00;
    247a:	21 96       	adiw	r28, 0x01	; 1
    247c:	18 82       	st	Y, r1
        l2capoutbuf[4] = dcid[0];
    247e:	e9 01       	movw	r28, r18
    2480:	48 81       	ld	r20, Y
    2482:	ec 01       	movw	r28, r24
    2484:	c4 56       	subi	r28, 0x64	; 100
    2486:	df 4f       	sbci	r29, 0xFF	; 255
    2488:	48 83       	st	Y, r20
        l2capoutbuf[5] = dcid[1];
    248a:	e9 01       	movw	r28, r18
    248c:	29 81       	ldd	r18, Y+1	; 0x01
    248e:	ec 01       	movw	r28, r24
    2490:	c3 56       	subi	r28, 0x63	; 99
    2492:	df 4f       	sbci	r29, 0xFF	; 255
    2494:	28 83       	st	Y, r18
        l2capoutbuf[6] = scid[0];
    2496:	2c 91       	ld	r18, X
    2498:	21 96       	adiw	r28, 0x01	; 1
    249a:	28 83       	st	Y, r18
        l2capoutbuf[7] = scid[1];
    249c:	11 96       	adiw	r26, 0x01	; 1
    249e:	2c 91       	ld	r18, X
    24a0:	dc 01       	movw	r26, r24
    24a2:	a1 56       	subi	r26, 0x61	; 97
    24a4:	bf 4f       	sbci	r27, 0xFF	; 255
    24a6:	2c 93       	st	X, r18

        L2CAP_Command(handle, l2capoutbuf, 8);
    24a8:	e1 2c       	mov	r14, r1
    24aa:	01 e0       	ldi	r16, 0x01	; 1
    24ac:	28 e0       	ldi	r18, 0x08	; 8
    24ae:	af 01       	movw	r20, r30
    24b0:	0e 94 ea 10 	call	0x21d4	; 0x21d4 <_ZN3BTD13L2CAP_CommandEjPhhhh>
}
    24b4:	df 91       	pop	r29
    24b6:	cf 91       	pop	r28
    24b8:	1f 91       	pop	r17
    24ba:	0f 91       	pop	r16
    24bc:	ef 90       	pop	r14
    24be:	08 95       	ret

000024c0 <_Z7Init_T4h>:

void setIndicatorCount(uint16_t count1){
	lcount = count1;	
}

void setIndicatorMode(uint8_t mode){
    24c0:	87 70       	andi	r24, 0x07	; 7
    24c2:	80 61       	ori	r24, 0x10	; 16
    24c4:	10 92 a0 00 	sts	0x00A0, r1	; 0x8000a0 <__TEXT_REGION_LENGTH__+0x7e00a0>
    24c8:	80 93 a1 00 	sts	0x00A1, r24	; 0x8000a1 <__TEXT_REGION_LENGTH__+0x7e00a1>
    24cc:	80 ed       	ldi	r24, 0xD0	; 208
    24ce:	97 e0       	ldi	r25, 0x07	; 7
    24d0:	90 93 a7 00 	sts	0x00A7, r25	; 0x8000a7 <__TEXT_REGION_LENGTH__+0x7e00a7>
    24d4:	80 93 a6 00 	sts	0x00A6, r24	; 0x8000a6 <__TEXT_REGION_LENGTH__+0x7e00a6>
    24d8:	78 94       	sei
    24da:	80 e2       	ldi	r24, 0x20	; 32
    24dc:	80 93 72 00 	sts	0x0072, r24	; 0x800072 <__TEXT_REGION_LENGTH__+0x7e0072>
    24e0:	08 95       	ret

000024e2 <_Z11Init_PWM_T0h>:
    24e2:	91 ea       	ldi	r25, 0xA1	; 161
    24e4:	94 bd       	out	0x24, r25	; 36
    24e6:	95 b5       	in	r25, 0x25	; 37
    24e8:	87 70       	andi	r24, 0x07	; 7
    24ea:	98 2b       	or	r25, r24
    24ec:	95 bd       	out	0x25, r25	; 37
    24ee:	8a b1       	in	r24, 0x0a	; 10
    24f0:	80 6e       	ori	r24, 0xE0	; 224
    24f2:	8a b9       	out	0x0a, r24	; 10
    24f4:	20 9a       	sbi	0x04, 0	; 4
    24f6:	08 95       	ret

000024f8 <_Z11Init_PWM_T1h>:
    24f8:	91 ea       	ldi	r25, 0xA1	; 161
    24fa:	90 93 80 00 	sts	0x0080, r25	; 0x800080 <__TEXT_REGION_LENGTH__+0x7e0080>
    24fe:	87 70       	andi	r24, 0x07	; 7
    2500:	80 93 81 00 	sts	0x0081, r24	; 0x800081 <__TEXT_REGION_LENGTH__+0x7e0081>
    2504:	84 b1       	in	r24, 0x04	; 4
    2506:	8e 61       	ori	r24, 0x1E	; 30
    2508:	84 b9       	out	0x04, r24	; 4
    250a:	08 95       	ret

0000250c <_Z11Init_PWM_T3h>:
    250c:	91 ea       	ldi	r25, 0xA1	; 161
    250e:	90 93 90 00 	sts	0x0090, r25	; 0x800090 <__TEXT_REGION_LENGTH__+0x7e0090>
    2512:	e1 e9       	ldi	r30, 0x91	; 145
    2514:	f0 e0       	ldi	r31, 0x00	; 0
    2516:	90 81       	ld	r25, Z
    2518:	87 70       	andi	r24, 0x07	; 7
    251a:	98 2b       	or	r25, r24
    251c:	90 83       	st	Z, r25
    251e:	52 9a       	sbi	0x0a, 2	; 10
    2520:	5a 9a       	sbi	0x0b, 2	; 11
    2522:	08 95       	ret

00002524 <_Z10hexToASCIIh>:
    2524:	8a 30       	cpi	r24, 0x0A	; 10
    2526:	10 f0       	brcs	.+4      	; 0x252c <_Z10hexToASCIIh+0x8>
    2528:	89 5c       	subi	r24, 0xC9	; 201
    252a:	08 95       	ret
    252c:	80 5d       	subi	r24, 0xD0	; 208
    252e:	08 95       	ret

00002530 <_Z11hexToStringh>:
    2530:	1f 93       	push	r17
    2532:	cf 93       	push	r28
    2534:	df 93       	push	r29
    2536:	18 2f       	mov	r17, r24
    2538:	82 95       	swap	r24
    253a:	8f 70       	andi	r24, 0x0F	; 15
    253c:	0e 94 92 12 	call	0x2524	; 0x2524 <_Z10hexToASCIIh>
    2540:	c0 e5       	ldi	r28, 0x50	; 80
    2542:	d2 e0       	ldi	r29, 0x02	; 2
    2544:	88 83       	st	Y, r24
    2546:	81 2f       	mov	r24, r17
    2548:	8f 70       	andi	r24, 0x0F	; 15
    254a:	80 93 53 02 	sts	0x0253, r24	; 0x800253 <_ZZ11hexToStringhE4temp>
    254e:	0e 94 92 12 	call	0x2524	; 0x2524 <_Z10hexToASCIIh>
    2552:	89 83       	std	Y+1, r24	; 0x01
    2554:	1a 82       	std	Y+2, r1	; 0x02
    2556:	ce 01       	movw	r24, r28
    2558:	df 91       	pop	r29
    255a:	cf 91       	pop	r28
    255c:	1f 91       	pop	r17
    255e:	08 95       	ret

00002560 <_Z11USART0_Initj>:
    2560:	90 93 c5 00 	sts	0x00C5, r25	; 0x8000c5 <__TEXT_REGION_LENGTH__+0x7e00c5>
    2564:	80 93 c4 00 	sts	0x00C4, r24	; 0x8000c4 <__TEXT_REGION_LENGTH__+0x7e00c4>
    2568:	88 e9       	ldi	r24, 0x98	; 152
    256a:	80 93 c1 00 	sts	0x00C1, r24	; 0x8000c1 <__TEXT_REGION_LENGTH__+0x7e00c1>
    256e:	8e e0       	ldi	r24, 0x0E	; 14
    2570:	80 93 c2 00 	sts	0x00C2, r24	; 0x8000c2 <__TEXT_REGION_LENGTH__+0x7e00c2>
    2574:	26 9a       	sbi	0x04, 6	; 4
    2576:	27 98       	cbi	0x04, 7	; 4
    2578:	08 95       	ret

0000257a <_Z15USART0_Transmith>:
    257a:	e0 ec       	ldi	r30, 0xC0	; 192
    257c:	f0 e0       	ldi	r31, 0x00	; 0
    257e:	90 81       	ld	r25, Z
    2580:	95 ff       	sbrs	r25, 5
    2582:	fd cf       	rjmp	.-6      	; 0x257e <_Z15USART0_Transmith+0x4>
    2584:	80 93 c6 00 	sts	0x00C6, r24	; 0x8000c6 <__TEXT_REGION_LENGTH__+0x7e00c6>
    2588:	08 95       	ret

0000258a <_Z11USART1_Initj>:
    258a:	90 93 cd 00 	sts	0x00CD, r25	; 0x8000cd <__TEXT_REGION_LENGTH__+0x7e00cd>
    258e:	80 93 cc 00 	sts	0x00CC, r24	; 0x8000cc <__TEXT_REGION_LENGTH__+0x7e00cc>
    2592:	88 e3       	ldi	r24, 0x38	; 56
    2594:	80 93 c9 00 	sts	0x00C9, r24	; 0x8000c9 <__TEXT_REGION_LENGTH__+0x7e00c9>
    2598:	8e e0       	ldi	r24, 0x0E	; 14
    259a:	80 93 ca 00 	sts	0x00CA, r24	; 0x8000ca <__TEXT_REGION_LENGTH__+0x7e00ca>
    259e:	08 95       	ret

000025a0 <_Z14USART1_Disablev>:
    25a0:	10 92 c9 00 	sts	0x00C9, r1	; 0x8000c9 <__TEXT_REGION_LENGTH__+0x7e00c9>
    25a4:	08 95       	ret

000025a6 <_Z15USART1_Transmith>:
    25a6:	90 91 c8 00 	lds	r25, 0x00C8	; 0x8000c8 <__TEXT_REGION_LENGTH__+0x7e00c8>
    25aa:	95 ff       	sbrs	r25, 5
    25ac:	24 c0       	rjmp	.+72     	; 0x25f6 <_Z15USART1_Transmith+0x50>
    25ae:	90 91 57 02 	lds	r25, 0x0257	; 0x800257 <tx1_ph>
    25b2:	99 23       	and	r25, r25
    25b4:	29 f1       	breq	.+74     	; 0x2600 <_Z15USART1_Transmith+0x5a>
    25b6:	1f c0       	rjmp	.+62     	; 0x25f6 <_Z15USART1_Transmith+0x50>
    25b8:	e9 ec       	ldi	r30, 0xC9	; 201
    25ba:	f0 e0       	ldi	r31, 0x00	; 0
    25bc:	90 81       	ld	r25, Z
    25be:	90 62       	ori	r25, 0x20	; 32
    25c0:	90 83       	st	Z, r25
    25c2:	20 91 56 02 	lds	r18, 0x0256	; 0x800256 <tx1_pl>
    25c6:	90 91 57 02 	lds	r25, 0x0257	; 0x800257 <tx1_ph>
    25ca:	29 13       	cpse	r18, r25
    25cc:	04 c0       	rjmp	.+8      	; 0x25d6 <_Z15USART1_Transmith+0x30>
    25ce:	10 92 57 02 	sts	0x0257, r1	; 0x800257 <tx1_ph>
    25d2:	10 92 56 02 	sts	0x0256, r1	; 0x800256 <tx1_pl>
    25d6:	90 91 57 02 	lds	r25, 0x0257	; 0x800257 <tx1_ph>
    25da:	9f 3f       	cpi	r25, 0xFF	; 255
    25dc:	99 f0       	breq	.+38     	; 0x2604 <_Z15USART1_Transmith+0x5e>
    25de:	e0 91 57 02 	lds	r30, 0x0257	; 0x800257 <tx1_ph>
    25e2:	f0 e0       	ldi	r31, 0x00	; 0
    25e4:	ec 57       	subi	r30, 0x7C	; 124
    25e6:	fc 4f       	sbci	r31, 0xFC	; 252
    25e8:	80 83       	st	Z, r24
    25ea:	80 91 57 02 	lds	r24, 0x0257	; 0x800257 <tx1_ph>
    25ee:	8f 5f       	subi	r24, 0xFF	; 255
    25f0:	80 93 57 02 	sts	0x0257, r24	; 0x800257 <tx1_ph>
    25f4:	08 95       	ret
    25f6:	90 91 c9 00 	lds	r25, 0x00C9	; 0x8000c9 <__TEXT_REGION_LENGTH__+0x7e00c9>
    25fa:	95 ff       	sbrs	r25, 5
    25fc:	dd cf       	rjmp	.-70     	; 0x25b8 <_Z15USART1_Transmith+0x12>
    25fe:	e1 cf       	rjmp	.-62     	; 0x25c2 <_Z15USART1_Transmith+0x1c>
    2600:	80 93 ce 00 	sts	0x00CE, r24	; 0x8000ce <__TEXT_REGION_LENGTH__+0x7e00ce>
    2604:	08 95       	ret

00002606 <_Z16printStringCRNL1PKc>:
    2606:	cf 93       	push	r28
    2608:	df 93       	push	r29
    260a:	ec 01       	movw	r28, r24
    260c:	8d e0       	ldi	r24, 0x0D	; 13
    260e:	0e 94 d3 12 	call	0x25a6	; 0x25a6 <_Z15USART1_Transmith>
    2612:	8a e0       	ldi	r24, 0x0A	; 10
    2614:	0e 94 d3 12 	call	0x25a6	; 0x25a6 <_Z15USART1_Transmith>
    2618:	88 81       	ld	r24, Y
    261a:	88 23       	and	r24, r24
    261c:	31 f0       	breq	.+12     	; 0x262a <_Z16printStringCRNL1PKc+0x24>
    261e:	21 96       	adiw	r28, 0x01	; 1
    2620:	0e 94 d3 12 	call	0x25a6	; 0x25a6 <_Z15USART1_Transmith>
    2624:	89 91       	ld	r24, Y+
    2626:	81 11       	cpse	r24, r1
    2628:	fb cf       	rjmp	.-10     	; 0x2620 <_Z16printStringCRNL1PKc+0x1a>
    262a:	df 91       	pop	r29
    262c:	cf 91       	pop	r28
    262e:	08 95       	ret

00002630 <_Z12printString1PKc>:
    2630:	cf 93       	push	r28
    2632:	df 93       	push	r29
    2634:	ec 01       	movw	r28, r24
    2636:	88 81       	ld	r24, Y
    2638:	88 23       	and	r24, r24
    263a:	31 f0       	breq	.+12     	; 0x2648 <_Z12printString1PKc+0x18>
    263c:	21 96       	adiw	r28, 0x01	; 1
    263e:	0e 94 d3 12 	call	0x25a6	; 0x25a6 <_Z15USART1_Transmith>
    2642:	89 91       	ld	r24, Y+
    2644:	81 11       	cpse	r24, r1
    2646:	fb cf       	rjmp	.-10     	; 0x263e <_Z12printString1PKc+0xe>
    2648:	df 91       	pop	r29
    264a:	cf 91       	pop	r28
    264c:	08 95       	ret

0000264e <_Z6NotifyPKch>:
    264e:	cf 93       	push	r28
    2650:	df 93       	push	r29
    2652:	ec 01       	movw	r28, r24
    2654:	fc 01       	movw	r30, r24
    2656:	84 91       	lpm	r24, Z
    2658:	88 23       	and	r24, r24
    265a:	49 f0       	breq	.+18     	; 0x266e <_Z6NotifyPKch+0x20>
    265c:	fe 01       	movw	r30, r28
    265e:	84 91       	lpm	r24, Z
    2660:	0e 94 d3 12 	call	0x25a6	; 0x25a6 <_Z15USART1_Transmith>
    2664:	21 96       	adiw	r28, 0x01	; 1
    2666:	fe 01       	movw	r30, r28
    2668:	84 91       	lpm	r24, Z
    266a:	81 11       	cpse	r24, r1
    266c:	f7 cf       	rjmp	.-18     	; 0x265c <_Z6NotifyPKch+0xe>
    266e:	df 91       	pop	r29
    2670:	cf 91       	pop	r28
    2672:	08 95       	ret

00002674 <_Z10D_PrintHexhh>:
    2674:	0e 94 98 12 	call	0x2530	; 0x2530 <_Z11hexToStringh>
    2678:	0e 94 18 13 	call	0x2630	; 0x2630 <_Z12printString1PKc>
    267c:	08 95       	ret

0000267e <_Z7NotifySch>:
    267e:	0e 94 d3 12 	call	0x25a6	; 0x25a6 <_Z15USART1_Transmith>
    2682:	08 95       	ret

00002684 <_Z11setThingsUpv>:
    2684:	89 e1       	ldi	r24, 0x19	; 25
    2686:	84 b9       	out	0x04, r24	; 4
    2688:	80 e8       	ldi	r24, 0x80	; 128
    268a:	8a b9       	out	0x0a, r24	; 10
    268c:	15 b8       	out	0x05, r1	; 5
    268e:	1b b8       	out	0x0b, r1	; 11
    2690:	81 e0       	ldi	r24, 0x01	; 1
    2692:	0e 94 86 12 	call	0x250c	; 0x250c <_Z11Init_PWM_T3h>
    2696:	81 e0       	ldi	r24, 0x01	; 1
    2698:	0e 94 60 12 	call	0x24c0	; 0x24c0 <_Z7Init_T4h>
    269c:	8c e0       	ldi	r24, 0x0C	; 12
    269e:	90 e0       	ldi	r25, 0x00	; 0
    26a0:	0e 94 c5 12 	call	0x258a	; 0x258a <_Z11USART1_Initj>
    26a4:	81 e0       	ldi	r24, 0x01	; 1
    26a6:	90 e0       	ldi	r25, 0x00	; 0
    26a8:	0e 94 b0 12 	call	0x2560	; 0x2560 <_Z11USART0_Initj>
    26ac:	08 95       	ret

000026ae <_Z6millisv>:
    26ae:	20 91 b1 05 	lds	r18, 0x05B1	; 0x8005b1 <time>
    26b2:	30 91 b2 05 	lds	r19, 0x05B2	; 0x8005b2 <time+0x1>
    26b6:	40 91 b3 05 	lds	r20, 0x05B3	; 0x8005b3 <time+0x2>
    26ba:	50 91 b4 05 	lds	r21, 0x05B4	; 0x8005b4 <time+0x3>
    26be:	60 91 b5 05 	lds	r22, 0x05B5	; 0x8005b5 <time+0x4>
    26c2:	70 91 b6 05 	lds	r23, 0x05B6	; 0x8005b6 <time+0x5>
    26c6:	80 91 b7 05 	lds	r24, 0x05B7	; 0x8005b7 <time+0x6>
    26ca:	90 91 b8 05 	lds	r25, 0x05B8	; 0x8005b8 <time+0x7>
    26ce:	08 95       	ret

000026d0 <_Z5delayj>:
    26d0:	8f 92       	push	r8
    26d2:	9f 92       	push	r9
    26d4:	af 92       	push	r10
    26d6:	bf 92       	push	r11
    26d8:	cf 92       	push	r12
    26da:	df 92       	push	r13
    26dc:	ef 92       	push	r14
    26de:	ff 92       	push	r15
    26e0:	0f 93       	push	r16
    26e2:	1f 93       	push	r17
    26e4:	cf 93       	push	r28
    26e6:	df 93       	push	r29
    26e8:	a0 90 b1 05 	lds	r10, 0x05B1	; 0x8005b1 <time>
    26ec:	b0 90 b2 05 	lds	r11, 0x05B2	; 0x8005b2 <time+0x1>
    26f0:	c0 90 b3 05 	lds	r12, 0x05B3	; 0x8005b3 <time+0x2>
    26f4:	d0 90 b4 05 	lds	r13, 0x05B4	; 0x8005b4 <time+0x3>
    26f8:	e0 90 b5 05 	lds	r14, 0x05B5	; 0x8005b5 <time+0x4>
    26fc:	f0 90 b6 05 	lds	r15, 0x05B6	; 0x8005b6 <time+0x5>
    2700:	00 91 b7 05 	lds	r16, 0x05B7	; 0x8005b7 <time+0x6>
    2704:	10 91 b8 05 	lds	r17, 0x05B8	; 0x8005b8 <time+0x7>
    2708:	28 2f       	mov	r18, r24
    270a:	39 2f       	mov	r19, r25
    270c:	40 e0       	ldi	r20, 0x00	; 0
    270e:	50 e0       	ldi	r21, 0x00	; 0
    2710:	60 e0       	ldi	r22, 0x00	; 0
    2712:	70 e0       	ldi	r23, 0x00	; 0
    2714:	80 e0       	ldi	r24, 0x00	; 0
    2716:	90 e0       	ldi	r25, 0x00	; 0
    2718:	0e 94 36 1e 	call	0x3c6c	; 0x3c6c <__adddi3>
    271c:	82 2e       	mov	r8, r18
    271e:	93 2e       	mov	r9, r19
    2720:	d4 2f       	mov	r29, r20
    2722:	c5 2f       	mov	r28, r21
    2724:	b6 2f       	mov	r27, r22
    2726:	a7 2f       	mov	r26, r23
    2728:	f8 2f       	mov	r31, r24
    272a:	e9 2f       	mov	r30, r25
    272c:	20 93 48 02 	sts	0x0248, r18	; 0x800248 <_ZZ5delayjE2tp>
    2730:	30 93 49 02 	sts	0x0249, r19	; 0x800249 <_ZZ5delayjE2tp+0x1>
    2734:	40 93 4a 02 	sts	0x024A, r20	; 0x80024a <_ZZ5delayjE2tp+0x2>
    2738:	50 93 4b 02 	sts	0x024B, r21	; 0x80024b <_ZZ5delayjE2tp+0x3>
    273c:	60 93 4c 02 	sts	0x024C, r22	; 0x80024c <_ZZ5delayjE2tp+0x4>
    2740:	70 93 4d 02 	sts	0x024D, r23	; 0x80024d <_ZZ5delayjE2tp+0x5>
    2744:	80 93 4e 02 	sts	0x024E, r24	; 0x80024e <_ZZ5delayjE2tp+0x6>
    2748:	90 93 4f 02 	sts	0x024F, r25	; 0x80024f <_ZZ5delayjE2tp+0x7>
    274c:	a0 90 b1 05 	lds	r10, 0x05B1	; 0x8005b1 <time>
    2750:	b0 90 b2 05 	lds	r11, 0x05B2	; 0x8005b2 <time+0x1>
    2754:	c0 90 b3 05 	lds	r12, 0x05B3	; 0x8005b3 <time+0x2>
    2758:	d0 90 b4 05 	lds	r13, 0x05B4	; 0x8005b4 <time+0x3>
    275c:	e0 90 b5 05 	lds	r14, 0x05B5	; 0x8005b5 <time+0x4>
    2760:	f0 90 b6 05 	lds	r15, 0x05B6	; 0x8005b6 <time+0x5>
    2764:	00 91 b7 05 	lds	r16, 0x05B7	; 0x8005b7 <time+0x6>
    2768:	10 91 b8 05 	lds	r17, 0x05B8	; 0x8005b8 <time+0x7>
    276c:	28 2d       	mov	r18, r8
    276e:	39 2d       	mov	r19, r9
    2770:	4d 2f       	mov	r20, r29
    2772:	5c 2f       	mov	r21, r28
    2774:	6b 2f       	mov	r22, r27
    2776:	7a 2f       	mov	r23, r26
    2778:	8f 2f       	mov	r24, r31
    277a:	9e 2f       	mov	r25, r30
    277c:	0e 94 54 1e 	call	0x3ca8	; 0x3ca8 <__cmpdi2>
    2780:	28 f7       	brcc	.-54     	; 0x274c <_Z5delayj+0x7c>
    2782:	df 91       	pop	r29
    2784:	cf 91       	pop	r28
    2786:	1f 91       	pop	r17
    2788:	0f 91       	pop	r16
    278a:	ff 90       	pop	r15
    278c:	ef 90       	pop	r14
    278e:	df 90       	pop	r13
    2790:	cf 90       	pop	r12
    2792:	bf 90       	pop	r11
    2794:	af 90       	pop	r10
    2796:	9f 90       	pop	r9
    2798:	8f 90       	pop	r8
    279a:	08 95       	ret

0000279c <_Z17setIndicatorCountj>:
    279c:	90 93 b0 05 	sts	0x05B0, r25	; 0x8005b0 <lcount+0x1>
    27a0:	80 93 af 05 	sts	0x05AF, r24	; 0x8005af <lcount>
    27a4:	08 95       	ret

000027a6 <__vector_18>:
		break;
			
	}
}

ISR(USART0_RX_vect){											//Takes of the incoming data on the RX0 line
    27a6:	1f 92       	push	r1
    27a8:	0f 92       	push	r0
    27aa:	0f b6       	in	r0, 0x3f	; 63
    27ac:	0f 92       	push	r0
    27ae:	11 24       	eor	r1, r1
    27b0:	2f 93       	push	r18
    27b2:	3f 93       	push	r19
    27b4:	4f 93       	push	r20
    27b6:	5f 93       	push	r21
    27b8:	6f 93       	push	r22
    27ba:	7f 93       	push	r23
    27bc:	8f 93       	push	r24
    27be:	9f 93       	push	r25
    27c0:	af 93       	push	r26
    27c2:	bf 93       	push	r27
    27c4:	ef 93       	push	r30
    27c6:	ff 93       	push	r31
	static uint8_t HEADER_RECEIVED = 0,dtemp,Head;
	static uint16_t count;
	dtemp = UDR0;
    27c8:	80 91 c6 00 	lds	r24, 0x00C6	; 0x8000c6 <__TEXT_REGION_LENGTH__+0x7e00c6>
    27cc:	80 93 47 02 	sts	0x0247, r24	; 0x800247 <_ZZ11__vector_18E5dtemp>
	#ifdef ULTRA_DEBUG
	USART1_Transmit(dtemp);										//Used to debug raw received data
	#endif
	if(!HEADER_RECEIVED && dtemp <= 0x04 && dtemp > 0x01){
    27d0:	90 91 46 02 	lds	r25, 0x0246	; 0x800246 <_ZZ11__vector_18E15HEADER_RECEIVED>
    27d4:	91 11       	cpse	r25, r1
    27d6:	15 c0       	rjmp	.+42     	; 0x2802 <__vector_18+0x5c>
    27d8:	9e ef       	ldi	r25, 0xFE	; 254
    27da:	98 0f       	add	r25, r24
    27dc:	93 30       	cpi	r25, 0x03	; 3
    27de:	08 f0       	brcs	.+2      	; 0x27e2 <__vector_18+0x3c>
    27e0:	9c c0       	rjmp	.+312    	; 0x291a <__vector_18+0x174>
		Head = dtemp;
    27e2:	80 93 45 02 	sts	0x0245, r24	; 0x800245 <_ZZ11__vector_18E4Head>
		HEADER_RECEIVED = 1;		//HCI Header arrived
    27e6:	91 e0       	ldi	r25, 0x01	; 1
    27e8:	90 93 46 02 	sts	0x0246, r25	; 0x800246 <_ZZ11__vector_18E15HEADER_RECEIVED>
		switch(Head){
    27ec:	82 30       	cpi	r24, 0x02	; 2
    27ee:	31 f0       	breq	.+12     	; 0x27fc <__vector_18+0x56>
    27f0:	84 30       	cpi	r24, 0x04	; 4
    27f2:	09 f0       	breq	.+2      	; 0x27f6 <__vector_18+0x50>
    27f4:	9d c0       	rjmp	.+314    	; 0x2930 <__vector_18+0x18a>
			case HCI_EVENT_PACKET:
			EVENT_RECEIVED = 0;
    27f6:	10 92 55 02 	sts	0x0255, r1	; 0x800255 <EVENT_RECEIVED>
			break;
    27fa:	9a c0       	rjmp	.+308    	; 0x2930 <__vector_18+0x18a>
			case HCI_ACL_DATA_PACKET:
			ACL_DATA_RECEIVED = 0;
    27fc:	10 92 54 02 	sts	0x0254, r1	; 0x800254 <ACL_DATA_RECEIVED>
			break;
    2800:	97 c0       	rjmp	.+302    	; 0x2930 <__vector_18+0x18a>
		}
		#endif
		return;
	}
	
	if(HEADER_RECEIVED && count < 300){
    2802:	20 91 43 02 	lds	r18, 0x0243	; 0x800243 <_ZZ11__vector_18E5count>
    2806:	30 91 44 02 	lds	r19, 0x0244	; 0x800244 <_ZZ11__vector_18E5count+0x1>
    280a:	2c 32       	cpi	r18, 0x2C	; 44
    280c:	61 e0       	ldi	r22, 0x01	; 1
    280e:	36 07       	cpc	r19, r22
    2810:	08 f0       	brcs	.+2      	; 0x2814 <__vector_18+0x6e>
    2812:	8a c0       	rjmp	.+276    	; 0x2928 <__vector_18+0x182>
		switch(Head){						//Switch on HCI Header type which is used in UART H4 
    2814:	90 91 45 02 	lds	r25, 0x0245	; 0x800245 <_ZZ11__vector_18E4Head>
    2818:	92 30       	cpi	r25, 0x02	; 2
    281a:	21 f0       	breq	.+8      	; 0x2824 <__vector_18+0x7e>
    281c:	94 30       	cpi	r25, 0x04	; 4
    281e:	09 f4       	brne	.+2      	; 0x2822 <__vector_18+0x7c>
    2820:	4a c0       	rjmp	.+148    	; 0x28b6 <__vector_18+0x110>
    2822:	7b c0       	rjmp	.+246    	; 0x291a <__vector_18+0x174>
			case HCI_ACL_DATA_PACKET:		//Incoming data is a HCI ACL Data Packet
			aclbuf[count] = dtemp;
    2824:	f9 01       	movw	r30, r18
    2826:	e8 5a       	subi	r30, 0xA8	; 168
    2828:	fd 4f       	sbci	r31, 0xFD	; 253
    282a:	80 83       	st	Z, r24
			if(count == 2 || count == 3){		//If count is 2 or 3, dtemp contains the total length which is used set the buf_top
    282c:	a9 01       	movw	r20, r18
    282e:	42 50       	subi	r20, 0x02	; 2
    2830:	51 09       	sbc	r21, r1
    2832:	42 30       	cpi	r20, 0x02	; 2
    2834:	51 05       	cpc	r21, r1
    2836:	b8 f4       	brcc	.+46     	; 0x2866 <__vector_18+0xc0>
				if(count == 2)
    2838:	22 30       	cpi	r18, 0x02	; 2
    283a:	31 05       	cpc	r19, r1
    283c:	39 f4       	brne	.+14     	; 0x284c <__vector_18+0xa6>
				Buf_top = dtemp + 4;
    283e:	90 e0       	ldi	r25, 0x00	; 0
    2840:	04 96       	adiw	r24, 0x04	; 4
    2842:	90 93 02 01 	sts	0x0102, r25	; 0x800102 <Buf_top+0x1>
    2846:	80 93 01 01 	sts	0x0101, r24	; 0x800101 <Buf_top>
    284a:	0d c0       	rjmp	.+26     	; 0x2866 <__vector_18+0xc0>
				if(count == 3)
    284c:	23 30       	cpi	r18, 0x03	; 3
    284e:	31 05       	cpc	r19, r1
    2850:	51 f4       	brne	.+20     	; 0x2866 <__vector_18+0xc0>
				Buf_top |= (dtemp << 8);
    2852:	40 91 01 01 	lds	r20, 0x0101	; 0x800101 <Buf_top>
    2856:	50 91 02 01 	lds	r21, 0x0102	; 0x800102 <Buf_top+0x1>
    285a:	ba 01       	movw	r22, r20
    285c:	78 2b       	or	r23, r24
    285e:	70 93 02 01 	sts	0x0102, r23	; 0x800102 <Buf_top+0x1>
    2862:	60 93 01 01 	sts	0x0101, r22	; 0x800101 <Buf_top>
				printString1(hexToString((uint8_t)(Buf_top >> 8)));
				printString1(hexToString((uint8_t)Buf_top));
				}
				#endif
			}
			count += 1;
    2866:	2f 5f       	subi	r18, 0xFF	; 255
    2868:	3f 4f       	sbci	r19, 0xFF	; 255
    286a:	30 93 44 02 	sts	0x0244, r19	; 0x800244 <_ZZ11__vector_18E5count+0x1>
    286e:	20 93 43 02 	sts	0x0243, r18	; 0x800243 <_ZZ11__vector_18E5count>
			if(count == Buf_top){				//Packet completely received
    2872:	80 91 01 01 	lds	r24, 0x0101	; 0x800101 <Buf_top>
    2876:	90 91 02 01 	lds	r25, 0x0102	; 0x800102 <Buf_top+0x1>
    287a:	28 17       	cp	r18, r24
    287c:	39 07       	cpc	r19, r25
    287e:	09 f0       	breq	.+2      	; 0x2882 <__vector_18+0xdc>
    2880:	4c c0       	rjmp	.+152    	; 0x291a <__vector_18+0x174>
				Event_Length = Buf_top;
    2882:	80 91 01 01 	lds	r24, 0x0101	; 0x800101 <Buf_top>
    2886:	90 91 02 01 	lds	r25, 0x0102	; 0x800102 <Buf_top+0x1>
    288a:	90 93 04 01 	sts	0x0104, r25	; 0x800104 <Event_Length+0x1>
    288e:	80 93 03 01 	sts	0x0103, r24	; 0x800103 <Event_Length>
				Buf_top = 299;
    2892:	8b e2       	ldi	r24, 0x2B	; 43
    2894:	91 e0       	ldi	r25, 0x01	; 1
    2896:	90 93 02 01 	sts	0x0102, r25	; 0x800102 <Buf_top+0x1>
    289a:	80 93 01 01 	sts	0x0101, r24	; 0x800101 <Buf_top>
				ACL_DATA_RECEIVED = 1;
    289e:	81 e0       	ldi	r24, 0x01	; 1
    28a0:	80 93 54 02 	sts	0x0254, r24	; 0x800254 <ACL_DATA_RECEIVED>
				#ifdef UART_DEBUG
				#endif
				count = 0;
    28a4:	10 92 44 02 	sts	0x0244, r1	; 0x800244 <_ZZ11__vector_18E5count+0x1>
    28a8:	10 92 43 02 	sts	0x0243, r1	; 0x800243 <_ZZ11__vector_18E5count>
				ACL_DATA_RECEIVED = 1;
    28ac:	80 93 54 02 	sts	0x0254, r24	; 0x800254 <ACL_DATA_RECEIVED>
				#ifdef UART_DEBUG
				printStringCRNL1("DA");
				#endif
				HEADER_RECEIVED = 0;
    28b0:	10 92 46 02 	sts	0x0246, r1	; 0x800246 <_ZZ11__vector_18E15HEADER_RECEIVED>
				return;
    28b4:	3d c0       	rjmp	.+122    	; 0x2930 <__vector_18+0x18a>
			}
			break;
			case HCI_SCO_DATA_PACKET:		
			break;
			case HCI_EVENT_PACKET:				//Incoming data is HCI Event Packet 
			hcibuf[count] = dtemp;
    28b6:	f9 01       	movw	r30, r18
    28b8:	ed 57       	subi	r30, 0x7D	; 125
    28ba:	fb 4f       	sbci	r31, 0xFB	; 251
    28bc:	80 83       	st	Z, r24
			if(count == 0){
				printStringCRNL1("E = ");
				printString1(hexToString(dtemp));
			}
			#endif
			if(count == 1){
    28be:	21 30       	cpi	r18, 0x01	; 1
    28c0:	31 05       	cpc	r19, r1
    28c2:	31 f4       	brne	.+12     	; 0x28d0 <__vector_18+0x12a>
				Buf_top = dtemp + 2;
    28c4:	90 e0       	ldi	r25, 0x00	; 0
    28c6:	02 96       	adiw	r24, 0x02	; 2
    28c8:	90 93 02 01 	sts	0x0102, r25	; 0x800102 <Buf_top+0x1>
    28cc:	80 93 01 01 	sts	0x0101, r24	; 0x800101 <Buf_top>
				#ifdef UART_DEBUG
				printStringCRNL1("L = ");
				printString1(hexToString(dtemp));
				#endif
			}
			count += 1;
    28d0:	2f 5f       	subi	r18, 0xFF	; 255
    28d2:	3f 4f       	sbci	r19, 0xFF	; 255
    28d4:	30 93 44 02 	sts	0x0244, r19	; 0x800244 <_ZZ11__vector_18E5count+0x1>
    28d8:	20 93 43 02 	sts	0x0243, r18	; 0x800243 <_ZZ11__vector_18E5count>
			if(count == Buf_top){
    28dc:	80 91 01 01 	lds	r24, 0x0101	; 0x800101 <Buf_top>
    28e0:	90 91 02 01 	lds	r25, 0x0102	; 0x800102 <Buf_top+0x1>
    28e4:	28 17       	cp	r18, r24
    28e6:	39 07       	cpc	r19, r25
    28e8:	c1 f4       	brne	.+48     	; 0x291a <__vector_18+0x174>
				Event_Length = Buf_top;
    28ea:	80 91 01 01 	lds	r24, 0x0101	; 0x800101 <Buf_top>
    28ee:	90 91 02 01 	lds	r25, 0x0102	; 0x800102 <Buf_top+0x1>
    28f2:	90 93 04 01 	sts	0x0104, r25	; 0x800104 <Event_Length+0x1>
    28f6:	80 93 03 01 	sts	0x0103, r24	; 0x800103 <Event_Length>
				Buf_top = 299;
    28fa:	8b e2       	ldi	r24, 0x2B	; 43
    28fc:	91 e0       	ldi	r25, 0x01	; 1
    28fe:	90 93 02 01 	sts	0x0102, r25	; 0x800102 <Buf_top+0x1>
    2902:	80 93 01 01 	sts	0x0101, r24	; 0x800101 <Buf_top>
				EVENT_RECEIVED = 1;
    2906:	81 e0       	ldi	r24, 0x01	; 1
    2908:	80 93 55 02 	sts	0x0255, r24	; 0x800255 <EVENT_RECEIVED>
				#ifdef UART_DEBUG
				#endif
				count = 0;
    290c:	10 92 44 02 	sts	0x0244, r1	; 0x800244 <_ZZ11__vector_18E5count+0x1>
    2910:	10 92 43 02 	sts	0x0243, r1	; 0x800243 <_ZZ11__vector_18E5count>
				HEADER_RECEIVED = 0;
    2914:	10 92 46 02 	sts	0x0246, r1	; 0x800246 <_ZZ11__vector_18E15HEADER_RECEIVED>
				#ifdef UART_DEBUG
				printStringCRNL1("ET");
				#endif
				return;
    2918:	0b c0       	rjmp	.+22     	; 0x2930 <__vector_18+0x18a>
			}
			break;
		}
	}
	if(count >= 300){
    291a:	80 91 43 02 	lds	r24, 0x0243	; 0x800243 <_ZZ11__vector_18E5count>
    291e:	90 91 44 02 	lds	r25, 0x0244	; 0x800244 <_ZZ11__vector_18E5count+0x1>
    2922:	8c 32       	cpi	r24, 0x2C	; 44
    2924:	91 40       	sbci	r25, 0x01	; 1
    2926:	20 f0       	brcs	.+8      	; 0x2930 <__vector_18+0x18a>
		printStringCRNL1("Buffer Overrun");				
    2928:	8a eb       	ldi	r24, 0xBA	; 186
    292a:	91 e0       	ldi	r25, 0x01	; 1
    292c:	0e 94 03 13 	call	0x2606	; 0x2606 <_Z16printStringCRNL1PKc>
		//HEADER_RECEIVED = 0;
		//Buf_top = 299;
	}
}
    2930:	ff 91       	pop	r31
    2932:	ef 91       	pop	r30
    2934:	bf 91       	pop	r27
    2936:	af 91       	pop	r26
    2938:	9f 91       	pop	r25
    293a:	8f 91       	pop	r24
    293c:	7f 91       	pop	r23
    293e:	6f 91       	pop	r22
    2940:	5f 91       	pop	r21
    2942:	4f 91       	pop	r20
    2944:	3f 91       	pop	r19
    2946:	2f 91       	pop	r18
    2948:	0f 90       	pop	r0
    294a:	0f be       	out	0x3f, r0	; 63
    294c:	0f 90       	pop	r0
    294e:	1f 90       	pop	r1
    2950:	18 95       	reti

00002952 <__vector_29>:


/*This ISR will be called when data is ready to be transmitted
*/
ISR(USART1_UDRE_vect){						//Handles the transmission of TX1 buffer 
    2952:	1f 92       	push	r1
    2954:	0f 92       	push	r0
    2956:	0f b6       	in	r0, 0x3f	; 63
    2958:	0f 92       	push	r0
    295a:	11 24       	eor	r1, r1
    295c:	8f 93       	push	r24
    295e:	9f 93       	push	r25
    2960:	ef 93       	push	r30
    2962:	ff 93       	push	r31
	if(tx1_ph == 0){
    2964:	80 91 57 02 	lds	r24, 0x0257	; 0x800257 <tx1_ph>
    2968:	81 11       	cpse	r24, r1
    296a:	09 c0       	rjmp	.+18     	; 0x297e <__vector_29+0x2c>
		if(UCSR1B & (1 << UDRIE1))
    296c:	80 91 c9 00 	lds	r24, 0x00C9	; 0x8000c9 <__TEXT_REGION_LENGTH__+0x7e00c9>
    2970:	85 ff       	sbrs	r24, 5
    2972:	05 c0       	rjmp	.+10     	; 0x297e <__vector_29+0x2c>
		UCSR1B &= ~(1 << UDRIE1);
    2974:	e9 ec       	ldi	r30, 0xC9	; 201
    2976:	f0 e0       	ldi	r31, 0x00	; 0
    2978:	80 81       	ld	r24, Z
    297a:	8f 7d       	andi	r24, 0xDF	; 223
    297c:	80 83       	st	Z, r24
	}
	if(tx1_ph){
    297e:	80 91 57 02 	lds	r24, 0x0257	; 0x800257 <tx1_ph>
    2982:	88 23       	and	r24, r24
    2984:	b9 f0       	breq	.+46     	; 0x29b4 <__vector_29+0x62>
		UDR1 = tx1buf[tx1_pl];
    2986:	e0 91 56 02 	lds	r30, 0x0256	; 0x800256 <tx1_pl>
    298a:	f0 e0       	ldi	r31, 0x00	; 0
    298c:	ec 57       	subi	r30, 0x7C	; 124
    298e:	fc 4f       	sbci	r31, 0xFC	; 252
    2990:	80 81       	ld	r24, Z
    2992:	80 93 ce 00 	sts	0x00CE, r24	; 0x8000ce <__TEXT_REGION_LENGTH__+0x7e00ce>
		tx1_pl += 1;
    2996:	80 91 56 02 	lds	r24, 0x0256	; 0x800256 <tx1_pl>
    299a:	8f 5f       	subi	r24, 0xFF	; 255
    299c:	80 93 56 02 	sts	0x0256, r24	; 0x800256 <tx1_pl>
		if(tx1_pl == tx1_ph){
    29a0:	90 91 56 02 	lds	r25, 0x0256	; 0x800256 <tx1_pl>
    29a4:	80 91 57 02 	lds	r24, 0x0257	; 0x800257 <tx1_ph>
    29a8:	98 13       	cpse	r25, r24
    29aa:	04 c0       	rjmp	.+8      	; 0x29b4 <__vector_29+0x62>
			tx1_ph = 0;
    29ac:	10 92 57 02 	sts	0x0257, r1	; 0x800257 <tx1_ph>
			tx1_pl = 0;
    29b0:	10 92 56 02 	sts	0x0256, r1	; 0x800256 <tx1_pl>
		}
	}
}
    29b4:	ff 91       	pop	r31
    29b6:	ef 91       	pop	r30
    29b8:	9f 91       	pop	r25
    29ba:	8f 91       	pop	r24
    29bc:	0f 90       	pop	r0
    29be:	0f be       	out	0x3f, r0	; 63
    29c0:	0f 90       	pop	r0
    29c2:	1f 90       	pop	r1
    29c4:	18 95       	reti

000029c6 <__vector_41>:

/*This ISR will be called every millisecond
and will increment time variable to keep track of milliseconds 
passed*/
ISR(TIMER4_CAPT_vect){			//Handles the millis function and LED fading
    29c6:	1f 92       	push	r1
    29c8:	0f 92       	push	r0
    29ca:	0f b6       	in	r0, 0x3f	; 63
    29cc:	0f 92       	push	r0
    29ce:	11 24       	eor	r1, r1
    29d0:	2f 93       	push	r18
    29d2:	3f 93       	push	r19
    29d4:	4f 93       	push	r20
    29d6:	5f 93       	push	r21
    29d8:	6f 93       	push	r22
    29da:	7f 93       	push	r23
    29dc:	8f 93       	push	r24
    29de:	9f 93       	push	r25
    29e0:	af 93       	push	r26
    29e2:	ef 93       	push	r30
    29e4:	ff 93       	push	r31
	//RTS ^= 1;
	static unsigned char i,up = 1;
	static uint16_t count1;
	time += 1;	
    29e6:	20 91 b1 05 	lds	r18, 0x05B1	; 0x8005b1 <time>
    29ea:	30 91 b2 05 	lds	r19, 0x05B2	; 0x8005b2 <time+0x1>
    29ee:	40 91 b3 05 	lds	r20, 0x05B3	; 0x8005b3 <time+0x2>
    29f2:	50 91 b4 05 	lds	r21, 0x05B4	; 0x8005b4 <time+0x3>
    29f6:	60 91 b5 05 	lds	r22, 0x05B5	; 0x8005b5 <time+0x4>
    29fa:	70 91 b6 05 	lds	r23, 0x05B6	; 0x8005b6 <time+0x5>
    29fe:	80 91 b7 05 	lds	r24, 0x05B7	; 0x8005b7 <time+0x6>
    2a02:	90 91 b8 05 	lds	r25, 0x05B8	; 0x8005b8 <time+0x7>
    2a06:	a1 e0       	ldi	r26, 0x01	; 1
    2a08:	0e 94 3f 1e 	call	0x3c7e	; 0x3c7e <__adddi3_s8>
    2a0c:	20 93 b1 05 	sts	0x05B1, r18	; 0x8005b1 <time>
    2a10:	30 93 b2 05 	sts	0x05B2, r19	; 0x8005b2 <time+0x1>
    2a14:	40 93 b3 05 	sts	0x05B3, r20	; 0x8005b3 <time+0x2>
    2a18:	50 93 b4 05 	sts	0x05B4, r21	; 0x8005b4 <time+0x3>
    2a1c:	60 93 b5 05 	sts	0x05B5, r22	; 0x8005b5 <time+0x4>
    2a20:	70 93 b6 05 	sts	0x05B6, r23	; 0x8005b6 <time+0x5>
    2a24:	80 93 b7 05 	sts	0x05B7, r24	; 0x8005b7 <time+0x6>
    2a28:	90 93 b8 05 	sts	0x05B8, r25	; 0x8005b8 <time+0x7>
	if(count1 >= lcount && 1){
    2a2c:	80 91 af 05 	lds	r24, 0x05AF	; 0x8005af <lcount>
    2a30:	90 91 b0 05 	lds	r25, 0x05B0	; 0x8005b0 <lcount+0x1>
    2a34:	20 91 41 02 	lds	r18, 0x0241	; 0x800241 <_ZZ11__vector_41E6count1>
    2a38:	30 91 42 02 	lds	r19, 0x0242	; 0x800242 <_ZZ11__vector_41E6count1+0x1>
    2a3c:	28 17       	cp	r18, r24
    2a3e:	39 07       	cpc	r19, r25
    2a40:	08 f4       	brcc	.+2      	; 0x2a44 <__vector_41+0x7e>
    2a42:	41 c0       	rjmp	.+130    	; 0x2ac6 <__vector_41+0x100>
		count1 = 0;
    2a44:	10 92 42 02 	sts	0x0242, r1	; 0x800242 <_ZZ11__vector_41E6count1+0x1>
    2a48:	10 92 41 02 	sts	0x0241, r1	; 0x800241 <_ZZ11__vector_41E6count1>
		if( i < 150 && up){
    2a4c:	e0 91 40 02 	lds	r30, 0x0240	; 0x800240 <__data_end>
    2a50:	e6 39       	cpi	r30, 0x96	; 150
    2a52:	88 f4       	brcc	.+34     	; 0x2a76 <__vector_41+0xb0>
    2a54:	80 91 00 01 	lds	r24, 0x0100	; 0x800100 <__data_start>
    2a58:	88 23       	and	r24, r24
    2a5a:	09 f4       	brne	.+2      	; 0x2a5e <__vector_41+0x98>
    2a5c:	3e c0       	rjmp	.+124    	; 0x2ada <__vector_41+0x114>
			i += 1;
    2a5e:	ef 5f       	subi	r30, 0xFF	; 255
    2a60:	e0 93 40 02 	sts	0x0240, r30	; 0x800240 <__data_end>
			OCR3B = pgm_read_byte(&(FadeLookUp[i]));
    2a64:	f0 e0       	ldi	r31, 0x00	; 0
    2a66:	e2 57       	subi	r30, 0x72	; 114
    2a68:	f7 4f       	sbci	r31, 0xF7	; 247
    2a6a:	e4 91       	lpm	r30, Z
    2a6c:	f0 e0       	ldi	r31, 0x00	; 0
    2a6e:	f0 93 9b 00 	sts	0x009B, r31	; 0x80009b <__TEXT_REGION_LENGTH__+0x7e009b>
    2a72:	e0 93 9a 00 	sts	0x009A, r30	; 0x80009a <__TEXT_REGION_LENGTH__+0x7e009a>
		}
		if(i == 150 && up){
    2a76:	e0 91 40 02 	lds	r30, 0x0240	; 0x800240 <__data_end>
    2a7a:	e6 39       	cpi	r30, 0x96	; 150
    2a7c:	39 f4       	brne	.+14     	; 0x2a8c <__vector_41+0xc6>
    2a7e:	80 91 00 01 	lds	r24, 0x0100	; 0x800100 <__data_start>
    2a82:	88 23       	and	r24, r24
    2a84:	29 f0       	breq	.+10     	; 0x2a90 <__vector_41+0xca>
			up = 0;
    2a86:	10 92 00 01 	sts	0x0100, r1	; 0x800100 <__data_start>
    2a8a:	02 c0       	rjmp	.+4      	; 0x2a90 <__vector_41+0xca>
		}
		if(i > 0 && !up){
    2a8c:	ee 23       	and	r30, r30
    2a8e:	a1 f0       	breq	.+40     	; 0x2ab8 <__vector_41+0xf2>
    2a90:	80 91 00 01 	lds	r24, 0x0100	; 0x800100 <__data_start>
    2a94:	81 11       	cpse	r24, r1
    2a96:	17 c0       	rjmp	.+46     	; 0x2ac6 <__vector_41+0x100>
			i -= 1;
    2a98:	e1 50       	subi	r30, 0x01	; 1
    2a9a:	e0 93 40 02 	sts	0x0240, r30	; 0x800240 <__data_end>
			OCR3B = pgm_read_byte(&(FadeLookUp[i]));
    2a9e:	f0 e0       	ldi	r31, 0x00	; 0
    2aa0:	e2 57       	subi	r30, 0x72	; 114
    2aa2:	f7 4f       	sbci	r31, 0xF7	; 247
    2aa4:	e4 91       	lpm	r30, Z
    2aa6:	f0 e0       	ldi	r31, 0x00	; 0
    2aa8:	f0 93 9b 00 	sts	0x009B, r31	; 0x80009b <__TEXT_REGION_LENGTH__+0x7e009b>
    2aac:	e0 93 9a 00 	sts	0x009A, r30	; 0x80009a <__TEXT_REGION_LENGTH__+0x7e009a>
		}
		if(i == 0 && !up){
    2ab0:	80 91 40 02 	lds	r24, 0x0240	; 0x800240 <__data_end>
    2ab4:	81 11       	cpse	r24, r1
    2ab6:	07 c0       	rjmp	.+14     	; 0x2ac6 <__vector_41+0x100>
    2ab8:	80 91 00 01 	lds	r24, 0x0100	; 0x800100 <__data_start>
    2abc:	81 11       	cpse	r24, r1
    2abe:	03 c0       	rjmp	.+6      	; 0x2ac6 <__vector_41+0x100>
			up = 1;
    2ac0:	81 e0       	ldi	r24, 0x01	; 1
    2ac2:	80 93 00 01 	sts	0x0100, r24	; 0x800100 <__data_start>
		}
	}
	count1 += 1;
    2ac6:	80 91 41 02 	lds	r24, 0x0241	; 0x800241 <_ZZ11__vector_41E6count1>
    2aca:	90 91 42 02 	lds	r25, 0x0242	; 0x800242 <_ZZ11__vector_41E6count1+0x1>
    2ace:	01 96       	adiw	r24, 0x01	; 1
    2ad0:	90 93 42 02 	sts	0x0242, r25	; 0x800242 <_ZZ11__vector_41E6count1+0x1>
    2ad4:	80 93 41 02 	sts	0x0241, r24	; 0x800241 <_ZZ11__vector_41E6count1>
    2ad8:	05 c0       	rjmp	.+10     	; 0x2ae4 <__vector_41+0x11e>
		count1 = 0;
		if( i < 150 && up){
			i += 1;
			OCR3B = pgm_read_byte(&(FadeLookUp[i]));
		}
		if(i == 150 && up){
    2ada:	e0 91 40 02 	lds	r30, 0x0240	; 0x800240 <__data_end>
    2ade:	e6 39       	cpi	r30, 0x96	; 150
    2ae0:	a9 f6       	brne	.-86     	; 0x2a8c <__vector_41+0xc6>
    2ae2:	d6 cf       	rjmp	.-84     	; 0x2a90 <__vector_41+0xca>
		if(i == 0 && !up){
			up = 1;
		}
	}
	count1 += 1;
    2ae4:	ff 91       	pop	r31
    2ae6:	ef 91       	pop	r30
    2ae8:	af 91       	pop	r26
    2aea:	9f 91       	pop	r25
    2aec:	8f 91       	pop	r24
    2aee:	7f 91       	pop	r23
    2af0:	6f 91       	pop	r22
    2af2:	5f 91       	pop	r21
    2af4:	4f 91       	pop	r20
    2af6:	3f 91       	pop	r19
    2af8:	2f 91       	pop	r18
    2afa:	0f 90       	pop	r0
    2afc:	0f be       	out	0x3f, r0	; 63
    2afe:	0f 90       	pop	r0
    2b00:	1f 90       	pop	r1
    2b02:	18 95       	reti

00002b04 <main>:

extern volatile uint8_t EVENT_RECEIVED;
bool EVENT_SERVICED = 0,RESPONSE_AWAITING = 0;
//extern volatile uint16_t poll_t;
int main(void)
{
    2b04:	cf 93       	push	r28
    2b06:	df 93       	push	r29
    2b08:	cd b7       	in	r28, 0x3d	; 61
    2b0a:	de b7       	in	r29, 0x3e	; 62
    2b0c:	cd 57       	subi	r28, 0x7D	; 125
    2b0e:	d1 40       	sbci	r29, 0x01	; 1
    2b10:	0f b6       	in	r0, 0x3f	; 63
    2b12:	f8 94       	cli
    2b14:	de bf       	out	0x3e, r29	; 62
    2b16:	0f be       	out	0x3f, r0	; 63
    2b18:	cd bf       	out	0x3d, r28	; 61
	DDRD = 0xFF;
    2b1a:	8f ef       	ldi	r24, 0xFF	; 255
    2b1c:	8a b9       	out	0x0a, r24	; 10
	DDRB = 0xFF;
    2b1e:	84 b9       	out	0x04, r24	; 4
	DDRE = 0xFF;
    2b20:	8d b9       	out	0x0d, r24	; 13
	DDRC = 0xFF;
    2b22:	87 b9       	out	0x07, r24	; 7
	PORTC = 0;
    2b24:	18 b8       	out	0x08, r1	; 8
	PORTE = 0;
    2b26:	1e b8       	out	0x0e, r1	; 14
	PORTD = 0;
    2b28:	1b b8       	out	0x0b, r1	; 11
	PORTB = 0;
    2b2a:	15 b8       	out	0x05, r1	; 5
	setIndicatorCount(0);
    2b2c:	80 e0       	ldi	r24, 0x00	; 0
    2b2e:	90 e0       	ldi	r25, 0x00	; 0
    2b30:	0e 94 ce 13 	call	0x279c	; 0x279c <_Z17setIndicatorCountj>
	bool IsFirstTime = 1;
	setThingsUp();
    2b34:	0e 94 42 13 	call	0x2684	; 0x2684 <_Z11setThingsUpv>
	//Init_Batt();
	//Init_Motor();
	printStringCRNL1("MonstruckTruck Logic Board Firmware v1.0");
    2b38:	89 ec       	ldi	r24, 0xC9	; 201
    2b3a:	91 e0       	ldi	r25, 0x01	; 1
    2b3c:	0e 94 03 13 	call	0x2606	; 0x2606 <_Z16printStringCRNL1PKc>
	printStringCRNL1("Waiting for Wake Event");
    2b40:	82 ef       	ldi	r24, 0xF2	; 242
    2b42:	91 e0       	ldi	r25, 0x01	; 1
    2b44:	0e 94 03 13 	call	0x2606	; 0x2606 <_Z16printStringCRNL1PKc>
	uint16_t t = millis();
    2b48:	0e 94 57 13 	call	0x26ae	; 0x26ae <_Z6millisv>
    2b4c:	72 2e       	mov	r7, r18
    2b4e:	83 2e       	mov	r8, r19
    2b50:	0f 2e       	mov	r0, r31
    2b52:	f3 e0       	ldi	r31, 0x03	; 3
    2b54:	9f 2e       	mov	r9, r31
    2b56:	f0 2d       	mov	r31, r0
	for(uint8_t i = 0; i < 3; i++){
		while(!EVENT_RECEIVED && ((millis() - t) < 5000));
    2b58:	80 91 55 02 	lds	r24, 0x0255	; 0x800255 <EVENT_RECEIVED>
    2b5c:	81 11       	cpse	r24, r1
    2b5e:	16 c0       	rjmp	.+44     	; 0x2b8c <main+0x88>
    2b60:	0e 94 57 13 	call	0x26ae	; 0x26ae <_Z6millisv>
    2b64:	a7 2c       	mov	r10, r7
    2b66:	b8 2c       	mov	r11, r8
    2b68:	c1 2c       	mov	r12, r1
    2b6a:	d1 2c       	mov	r13, r1
    2b6c:	e1 2c       	mov	r14, r1
    2b6e:	f1 2c       	mov	r15, r1
    2b70:	00 e0       	ldi	r16, 0x00	; 0
    2b72:	10 e0       	ldi	r17, 0x00	; 0
    2b74:	0e 94 4b 1e 	call	0x3c96	; 0x3c96 <__subdi3>
    2b78:	27 38       	cpi	r18, 0x87	; 135
    2b7a:	33 41       	sbci	r19, 0x13	; 19
    2b7c:	41 05       	cpc	r20, r1
    2b7e:	51 05       	cpc	r21, r1
    2b80:	61 05       	cpc	r22, r1
    2b82:	71 05       	cpc	r23, r1
    2b84:	81 05       	cpc	r24, r1
    2b86:	91 05       	cpc	r25, r1
    2b88:	39 f3       	breq	.-50     	; 0x2b58 <main+0x54>
    2b8a:	30 f3       	brcs	.-52     	; 0x2b58 <main+0x54>
		EVENT_RECEIVED = 0;
    2b8c:	10 92 55 02 	sts	0x0255, r1	; 0x800255 <EVENT_RECEIVED>
    2b90:	9a 94       	dec	r9
	//Init_Batt();
	//Init_Motor();
	printStringCRNL1("MonstruckTruck Logic Board Firmware v1.0");
	printStringCRNL1("Waiting for Wake Event");
	uint16_t t = millis();
	for(uint8_t i = 0; i < 3; i++){
    2b92:	91 10       	cpse	r9, r1
    2b94:	e1 cf       	rjmp	.-62     	; 0x2b58 <main+0x54>
		while(!EVENT_RECEIVED && ((millis() - t) < 5000));
		EVENT_RECEIVED = 0;
	}
	printStringCRNL1("HCI Wake Event Received");
    2b96:	89 e0       	ldi	r24, 0x09	; 9
    2b98:	92 e0       	ldi	r25, 0x02	; 2
    2b9a:	0e 94 03 13 	call	0x2606	; 0x2606 <_Z16printStringCRNL1PKc>
	printStringCRNL1("HC-05 Alive!");
    2b9e:	81 e2       	ldi	r24, 0x21	; 33
    2ba0:	92 e0       	ldi	r25, 0x02	; 2
    2ba2:	0e 94 03 13 	call	0x2606	; 0x2606 <_Z16printStringCRNL1PKc>
	setIndicatorCount(2);
    2ba6:	82 e0       	ldi	r24, 0x02	; 2
    2ba8:	90 e0       	ldi	r25, 0x00	; 0
    2baa:	0e 94 ce 13 	call	0x279c	; 0x279c <_Z17setIndicatorCountj>
	BTD b;
    2bae:	ce 01       	movw	r24, r28
    2bb0:	88 52       	subi	r24, 0x28	; 40
    2bb2:	9f 4f       	sbci	r25, 0xFF	; 255
    2bb4:	0e 94 8d 06 	call	0xd1a	; 0xd1a <_ZN3BTDC1Ev>
	PS3BT PS3(&b);
    2bb8:	a1 2c       	mov	r10, r1
    2bba:	c1 2c       	mov	r12, r1
    2bbc:	e1 2c       	mov	r14, r1
    2bbe:	00 e0       	ldi	r16, 0x00	; 0
    2bc0:	20 e0       	ldi	r18, 0x00	; 0
    2bc2:	40 e0       	ldi	r20, 0x00	; 0
    2bc4:	be 01       	movw	r22, r28
    2bc6:	68 52       	subi	r22, 0x28	; 40
    2bc8:	7f 4f       	sbci	r23, 0xFF	; 255
    2bca:	ce 01       	movw	r24, r28
    2bcc:	01 96       	adiw	r24, 0x01	; 1
    2bce:	0e 94 f4 17 	call	0x2fe8	; 0x2fe8 <_ZN5PS3BTC1EP3BTDhhhhhh>
	b.Initialize();
    2bd2:	ce 01       	movw	r24, r28
    2bd4:	88 52       	subi	r24, 0x28	; 40
    2bd6:	9f 4f       	sbci	r25, 0xFF	; 255
    2bd8:	0e 94 af 06 	call	0xd5e	; 0xd5e <_ZN3BTD10InitializeEv>
	b.hci_state = HCI_INIT_STATE;
    2bdc:	c8 5d       	subi	r28, 0xD8	; 216
    2bde:	de 4f       	sbci	r29, 0xFE	; 254
    2be0:	18 82       	st	Y, r1
    2be2:	c8 52       	subi	r28, 0x28	; 40
    2be4:	d1 40       	sbci	r29, 0x01	; 1
	b.HCI_task();
    2be6:	ce 01       	movw	r24, r28
    2be8:	88 52       	subi	r24, 0x28	; 40
    2bea:	9f 4f       	sbci	r25, 0xFF	; 255
    2bec:	0e 94 fe 0c 	call	0x19fc	; 0x19fc <_ZN3BTD8HCI_taskEv>
	while (1) 
    {
		if(!PS3.PS3Connected){
    2bf0:	8e 85       	ldd	r24, Y+14	; 0x0e
    2bf2:	81 11       	cpse	r24, r1
    2bf4:	04 c0       	rjmp	.+8      	; 0x2bfe <main+0xfa>
			setIndicatorCount(2);
    2bf6:	82 e0       	ldi	r24, 0x02	; 2
    2bf8:	90 e0       	ldi	r25, 0x00	; 0
    2bfa:	0e 94 ce 13 	call	0x279c	; 0x279c <_Z17setIndicatorCountj>
		}
		//checkBatt();
		b.BPoll();
    2bfe:	ce 01       	movw	r24, r28
    2c00:	88 52       	subi	r24, 0x28	; 40
    2c02:	9f 4f       	sbci	r25, 0xFF	; 255
    2c04:	0e 94 90 10 	call	0x2120	; 0x2120 <_ZN3BTD5BPollEv>
		if (PS3.PS3Connected) {
    2c08:	8e 85       	ldd	r24, Y+14	; 0x0e
    2c0a:	88 23       	and	r24, r24
    2c0c:	89 f3       	breq	.-30     	; 0x2bf0 <main+0xec>
			setIndicatorCount(8);
    2c0e:	88 e0       	ldi	r24, 0x08	; 8
    2c10:	90 e0       	ldi	r25, 0x00	; 0
    2c12:	0e 94 ce 13 	call	0x279c	; 0x279c <_Z17setIndicatorCountj>
			if (PS3.getButtonClick(PS)) {
    2c16:	60 e1       	ldi	r22, 0x10	; 16
    2c18:	ce 01       	movw	r24, r28
    2c1a:	01 96       	adiw	r24, 0x01	; 1
    2c1c:	0e 94 3c 18 	call	0x3078	; 0x3078 <_ZN5PS3BT14getButtonClickE10ButtonEnum>
    2c20:	88 23       	and	r24, r24
    2c22:	41 f0       	breq	.+16     	; 0x2c34 <main+0x130>
				printStringCRNL1(PSTR("PS Button"));
    2c24:	8c e8       	ldi	r24, 0x8C	; 140
    2c26:	99 e0       	ldi	r25, 0x09	; 9
    2c28:	0e 94 03 13 	call	0x2606	; 0x2606 <_Z16printStringCRNL1PKc>
				PS3.disconnect();
    2c2c:	ce 01       	movw	r24, r28
    2c2e:	01 96       	adiw	r24, 0x01	; 1
    2c30:	0e 94 d2 17 	call	0x2fa4	; 0x2fa4 <_ZN5PS3BT10disconnectEv>
			}
			updateMotorSpeed(PS3.getAnalogHat(RightHatY),PS3.getAnalogHat(LeftHatX));
    2c34:	60 e0       	ldi	r22, 0x00	; 0
    2c36:	ce 01       	movw	r24, r28
    2c38:	01 96       	adiw	r24, 0x01	; 1
    2c3a:	0e 94 72 18 	call	0x30e4	; 0x30e4 <_ZN5PS3BT12getAnalogHatE13AnalogHatEnum>
    2c3e:	18 2f       	mov	r17, r24
    2c40:	63 e0       	ldi	r22, 0x03	; 3
    2c42:	ce 01       	movw	r24, r28
    2c44:	01 96       	adiw	r24, 0x01	; 1
    2c46:	0e 94 72 18 	call	0x30e4	; 0x30e4 <_ZN5PS3BT12getAnalogHatE13AnalogHatEnum>
    2c4a:	61 2f       	mov	r22, r17
    2c4c:	0e 94 de 16 	call	0x2dbc	; 0x2dbc <_Z16updateMotorSpeedhh>
    2c50:	cf cf       	rjmp	.-98     	; 0x2bf0 <main+0xec>

00002c52 <_Z10Init_Motorv>:
 */ 

#include "Motor.h"

void Init_Motor(){
	DDRB |= (1 << 0) | (1 << 3) | (1 << 4);
    2c52:	84 b1       	in	r24, 0x04	; 4
    2c54:	89 61       	ori	r24, 0x19	; 25
    2c56:	84 b9       	out	0x04, r24	; 4
	DDRD |= (1 << 7);
    2c58:	57 9a       	sbi	0x0a, 7	; 10
	PORTB = (1 << 0) | (1 << 3);
    2c5a:	89 e0       	ldi	r24, 0x09	; 9
    2c5c:	85 b9       	out	0x05, r24	; 5
	Init_PWM_T0(0x01);
    2c5e:	81 e0       	ldi	r24, 0x01	; 1
    2c60:	0e 94 71 12 	call	0x24e2	; 0x24e2 <_Z11Init_PWM_T0h>
	Init_PWM_T1(0x01);
    2c64:	81 e0       	ldi	r24, 0x01	; 1
    2c66:	0e 94 7c 12 	call	0x24f8	; 0x24f8 <_Z11Init_PWM_T1h>
    2c6a:	08 95       	ret

00002c6c <_Z13disable_Motorv>:
}

void disable_Motor(){
	PORTB &= ~((1 << 3) | (1 << 4) | (1 << 0));
    2c6c:	85 b1       	in	r24, 0x05	; 5
    2c6e:	86 7e       	andi	r24, 0xE6	; 230
    2c70:	85 b9       	out	0x05, r24	; 5
	PORTD &= ~(1 << 7);
    2c72:	5f 98       	cbi	0x0b, 7	; 11
	OCR0A = 0;
    2c74:	17 bc       	out	0x27, r1	; 39
	OCR0B = 0;
    2c76:	18 bc       	out	0x28, r1	; 40
	OCR1A = 0;
    2c78:	10 92 89 00 	sts	0x0089, r1	; 0x800089 <__TEXT_REGION_LENGTH__+0x7e0089>
    2c7c:	10 92 88 00 	sts	0x0088, r1	; 0x800088 <__TEXT_REGION_LENGTH__+0x7e0088>
	OCR1B = 0;
    2c80:	10 92 8b 00 	sts	0x008B, r1	; 0x80008b <__TEXT_REGION_LENGTH__+0x7e008b>
    2c84:	10 92 8a 00 	sts	0x008A, r1	; 0x80008a <__TEXT_REGION_LENGTH__+0x7e008a>
    2c88:	08 95       	ret

00002c8a <_Z12offsetForJoyj>:
	}
}
unsigned int offsetForJoy(unsigned int data)
{
	unsigned int t;
	if(data >= 0x80)
    2c8a:	80 38       	cpi	r24, 0x80	; 128
    2c8c:	91 05       	cpc	r25, r1
    2c8e:	30 f0       	brcs	.+12     	; 0x2c9c <_Z12offsetForJoyj+0x12>
	{
		data-=0x80;
    2c90:	9c 01       	movw	r18, r24
    2c92:	20 58       	subi	r18, 0x80	; 128
    2c94:	31 09       	sbc	r19, r1
		t = 0x100;
    2c96:	80 e0       	ldi	r24, 0x00	; 0
    2c98:	91 e0       	ldi	r25, 0x01	; 1
    2c9a:	07 c0       	rjmp	.+14     	; 0x2caa <_Z12offsetForJoyj+0x20>
	}
	else
	{
		data-=0x80;
    2c9c:	9c 01       	movw	r18, r24
    2c9e:	20 58       	subi	r18, 0x80	; 128
    2ca0:	31 09       	sbc	r19, r1
		data = ~data;
    2ca2:	20 95       	com	r18
    2ca4:	30 95       	com	r19
		t = 0;
    2ca6:	80 e0       	ldi	r24, 0x00	; 0
    2ca8:	90 e0       	ldi	r25, 0x00	; 0
	}
	data = (data << 1) | 0x01;
    2caa:	22 0f       	add	r18, r18
    2cac:	33 1f       	adc	r19, r19
    2cae:	21 60       	ori	r18, 0x01	; 1
	if(data > 0xFA)
    2cb0:	2b 3f       	cpi	r18, 0xFB	; 251
    2cb2:	31 05       	cpc	r19, r1
    2cb4:	30 f4       	brcc	.+12     	; 0x2cc2 <_Z12offsetForJoyj+0x38>
	data = 0xFF;
	if(data < 0x05)
    2cb6:	25 30       	cpi	r18, 0x05	; 5
    2cb8:	31 05       	cpc	r19, r1
    2cba:	28 f4       	brcc	.+10     	; 0x2cc6 <_Z12offsetForJoyj+0x3c>
	data = 0;
    2cbc:	20 e0       	ldi	r18, 0x00	; 0
    2cbe:	30 e0       	ldi	r19, 0x00	; 0
    2cc0:	02 c0       	rjmp	.+4      	; 0x2cc6 <_Z12offsetForJoyj+0x3c>
		data = ~data;
		t = 0;
	}
	data = (data << 1) | 0x01;
	if(data > 0xFA)
	data = 0xFF;
    2cc2:	2f ef       	ldi	r18, 0xFF	; 255
    2cc4:	30 e0       	ldi	r19, 0x00	; 0
	if(data < 0x05)
	data = 0;
	data&=0xFF;
	data|=t;
	return data;
}
    2cc6:	82 2b       	or	r24, r18
    2cc8:	08 95       	ret

00002cca <_Z11computeLeftjj>:
		OCR1B = MotorR;
	}*/
}

unsigned int computeLeft(unsigned int Gas,unsigned int Steer)
{
    2cca:	0f 93       	push	r16
    2ccc:	1f 93       	push	r17
    2cce:	cf 93       	push	r28
    2cd0:	df 93       	push	r29
    2cd2:	8b 01       	movw	r16, r22
	unsigned int MotorL,TSteer;
	MotorL = offsetForJoy(Gas);
    2cd4:	0e 94 45 16 	call	0x2c8a	; 0x2c8a <_Z12offsetForJoyj>
    2cd8:	ec 01       	movw	r28, r24
	TSteer = offsetForJoy(Steer);
    2cda:	c8 01       	movw	r24, r16
    2cdc:	0e 94 45 16 	call	0x2c8a	; 0x2c8a <_Z12offsetForJoyj>
    2ce0:	9c 01       	movw	r18, r24
	if(MotorL & 0x0FF)					//Is Moving?
    2ce2:	ae 01       	movw	r20, r28
    2ce4:	55 27       	eor	r21, r21
    2ce6:	41 15       	cp	r20, r1
    2ce8:	51 05       	cpc	r21, r1
    2cea:	c9 f0       	breq	.+50     	; 0x2d1e <_Z11computeLeftjj+0x54>
	{
		if(MotorL & 0x100)				//Moving forward?
    2cec:	ce 01       	movw	r24, r28
    2cee:	88 27       	eor	r24, r24
    2cf0:	91 70       	andi	r25, 0x01	; 1
    2cf2:	d0 ff       	sbrs	r29, 0
    2cf4:	0a c0       	rjmp	.+20     	; 0x2d0a <_Z11computeLeftjj+0x40>
		{
			if(TSteer & 0x100)			//Turn Right?
    2cf6:	30 fd       	sbrc	r19, 0
    2cf8:	1a c0       	rjmp	.+52     	; 0x2d2e <_Z11computeLeftjj+0x64>
			return MotorL;
			else
			{
				if((TSteer & 0xFF) >= (MotorL & 0xFF))
    2cfa:	33 27       	eor	r19, r19
    2cfc:	24 17       	cp	r18, r20
    2cfe:	35 07       	cpc	r19, r21
    2d00:	c0 f4       	brcc	.+48     	; 0x2d32 <_Z11computeLeftjj+0x68>
				return 0x100;
				else
				return (MotorL - (TSteer & 0xFF));
    2d02:	ce 01       	movw	r24, r28
    2d04:	82 1b       	sub	r24, r18
    2d06:	93 0b       	sbc	r25, r19
    2d08:	18 c0       	rjmp	.+48     	; 0x2d3a <_Z11computeLeftjj+0x70>
			}
		}
		else
		{
			if(TSteer & 0x100)
    2d0a:	30 ff       	sbrs	r19, 0
    2d0c:	15 c0       	rjmp	.+42     	; 0x2d38 <_Z11computeLeftjj+0x6e>
			{
				if((TSteer & 0xFF) < (MotorL & 0xFF))
    2d0e:	33 27       	eor	r19, r19
    2d10:	24 17       	cp	r18, r20
    2d12:	35 07       	cpc	r19, r21
    2d14:	90 f4       	brcc	.+36     	; 0x2d3a <_Z11computeLeftjj+0x70>
				return (MotorL - (TSteer & 0xFF));
    2d16:	ce 01       	movw	r24, r28
    2d18:	82 1b       	sub	r24, r18
    2d1a:	93 0b       	sbc	r25, r19
    2d1c:	0e c0       	rjmp	.+28     	; 0x2d3a <_Z11computeLeftjj+0x70>
		}
		
	}
	else
	{
		if(TSteer & 0xFF)
    2d1e:	99 27       	eor	r25, r25
    2d20:	00 97       	sbiw	r24, 0x00	; 0
    2d22:	59 f0       	breq	.+22     	; 0x2d3a <_Z11computeLeftjj+0x70>
		{
			if(TSteer & 0x100)      //Turn Right if true
    2d24:	30 ff       	sbrs	r19, 0
    2d26:	09 c0       	rjmp	.+18     	; 0x2d3a <_Z11computeLeftjj+0x70>
			return (0x100 | TSteer);
    2d28:	c9 01       	movw	r24, r18
    2d2a:	91 60       	ori	r25, 0x01	; 1
    2d2c:	06 c0       	rjmp	.+12     	; 0x2d3a <_Z11computeLeftjj+0x70>
	if(MotorL & 0x0FF)					//Is Moving?
	{
		if(MotorL & 0x100)				//Moving forward?
		{
			if(TSteer & 0x100)			//Turn Right?
			return MotorL;
    2d2e:	ce 01       	movw	r24, r28
    2d30:	04 c0       	rjmp	.+8      	; 0x2d3a <_Z11computeLeftjj+0x70>
			else
			{
				if((TSteer & 0xFF) >= (MotorL & 0xFF))
				return 0x100;
    2d32:	80 e0       	ldi	r24, 0x00	; 0
    2d34:	91 e0       	ldi	r25, 0x01	; 1
    2d36:	01 c0       	rjmp	.+2      	; 0x2d3a <_Z11computeLeftjj+0x70>
				return (MotorL - (TSteer & 0xFF));
				else
				return 0;
			}
			else
			return MotorL;
    2d38:	ce 01       	movw	r24, r28
			return (0xFF & TSteer);
		}
		else
		return 0;
	}
}
    2d3a:	df 91       	pop	r29
    2d3c:	cf 91       	pop	r28
    2d3e:	1f 91       	pop	r17
    2d40:	0f 91       	pop	r16
    2d42:	08 95       	ret

00002d44 <_Z12computeRightjj>:
unsigned int computeRight(unsigned int Gas,unsigned int Steer)
{
    2d44:	0f 93       	push	r16
    2d46:	1f 93       	push	r17
    2d48:	cf 93       	push	r28
    2d4a:	df 93       	push	r29
    2d4c:	8b 01       	movw	r16, r22
	unsigned int MotorL,TSteer;
	MotorL = offsetForJoy(Gas);
    2d4e:	0e 94 45 16 	call	0x2c8a	; 0x2c8a <_Z12offsetForJoyj>
    2d52:	ec 01       	movw	r28, r24
	TSteer = offsetForJoy(Steer);
    2d54:	c8 01       	movw	r24, r16
    2d56:	0e 94 45 16 	call	0x2c8a	; 0x2c8a <_Z12offsetForJoyj>
    2d5a:	9c 01       	movw	r18, r24
	if(MotorL & 0x0FF)					//Is Moving?
    2d5c:	ae 01       	movw	r20, r28
    2d5e:	55 27       	eor	r21, r21
    2d60:	41 15       	cp	r20, r1
    2d62:	51 05       	cpc	r21, r1
    2d64:	c1 f0       	breq	.+48     	; 0x2d96 <_Z12computeRightjj+0x52>
	{
		if(MotorL & 0x100)				//Moving forward?
    2d66:	d0 ff       	sbrs	r29, 0
    2d68:	0a c0       	rjmp	.+20     	; 0x2d7e <_Z12computeRightjj+0x3a>
		{
			if(!(TSteer & 0x100))			//Turn Left?
    2d6a:	90 ff       	sbrs	r25, 0
    2d6c:	1c c0       	rjmp	.+56     	; 0x2da6 <_Z12computeRightjj+0x62>
			return MotorL;
			else
			{
				if((TSteer & 0xFF) >= (MotorL & 0xFF))
    2d6e:	33 27       	eor	r19, r19
    2d70:	24 17       	cp	r18, r20
    2d72:	35 07       	cpc	r19, r21
    2d74:	d0 f4       	brcc	.+52     	; 0x2daa <_Z12computeRightjj+0x66>
				return 0x100;
				else
				return (MotorL - (TSteer & 0xFF));
    2d76:	ce 01       	movw	r24, r28
    2d78:	82 1b       	sub	r24, r18
    2d7a:	93 0b       	sbc	r25, r19
    2d7c:	1a c0       	rjmp	.+52     	; 0x2db2 <_Z12computeRightjj+0x6e>
			}
		}
		else
		{
			if(!(TSteer & 0x100))
    2d7e:	88 27       	eor	r24, r24
    2d80:	91 70       	andi	r25, 0x01	; 1
    2d82:	30 fd       	sbrc	r19, 0
    2d84:	15 c0       	rjmp	.+42     	; 0x2db0 <_Z12computeRightjj+0x6c>
			{
				if((TSteer & 0xFF) < (MotorL & 0xFF))
    2d86:	33 27       	eor	r19, r19
    2d88:	24 17       	cp	r18, r20
    2d8a:	35 07       	cpc	r19, r21
    2d8c:	90 f4       	brcc	.+36     	; 0x2db2 <_Z12computeRightjj+0x6e>
				return (MotorL - (TSteer & 0xFF));
    2d8e:	ce 01       	movw	r24, r28
    2d90:	82 1b       	sub	r24, r18
    2d92:	93 0b       	sbc	r25, r19
    2d94:	0e c0       	rjmp	.+28     	; 0x2db2 <_Z12computeRightjj+0x6e>
			return MotorL;
		}
	}
	else
	{
		if(TSteer & 0xFF)
    2d96:	99 27       	eor	r25, r25
    2d98:	00 97       	sbiw	r24, 0x00	; 0
    2d9a:	59 f0       	breq	.+22     	; 0x2db2 <_Z12computeRightjj+0x6e>
		{
			if(!(TSteer & 0x100))      //Turn left if true
    2d9c:	30 fd       	sbrc	r19, 0
    2d9e:	09 c0       	rjmp	.+18     	; 0x2db2 <_Z12computeRightjj+0x6e>
			return (0x100 | TSteer);
    2da0:	c9 01       	movw	r24, r18
    2da2:	91 60       	ori	r25, 0x01	; 1
    2da4:	06 c0       	rjmp	.+12     	; 0x2db2 <_Z12computeRightjj+0x6e>
	if(MotorL & 0x0FF)					//Is Moving?
	{
		if(MotorL & 0x100)				//Moving forward?
		{
			if(!(TSteer & 0x100))			//Turn Left?
			return MotorL;
    2da6:	ce 01       	movw	r24, r28
    2da8:	04 c0       	rjmp	.+8      	; 0x2db2 <_Z12computeRightjj+0x6e>
			else
			{
				if((TSteer & 0xFF) >= (MotorL & 0xFF))
				return 0x100;
    2daa:	80 e0       	ldi	r24, 0x00	; 0
    2dac:	91 e0       	ldi	r25, 0x01	; 1
    2dae:	01 c0       	rjmp	.+2      	; 0x2db2 <_Z12computeRightjj+0x6e>
				return (MotorL - (TSteer & 0xFF));
				else
				return 0;
			}
			else
			return MotorL;
    2db0:	ce 01       	movw	r24, r28
			return (0xFF & TSteer);
		}
		else
		return 0;
	}
}
    2db2:	df 91       	pop	r29
    2db4:	cf 91       	pop	r28
    2db6:	1f 91       	pop	r17
    2db8:	0f 91       	pop	r16
    2dba:	08 95       	ret

00002dbc <_Z16updateMotorSpeedhh>:
	OCR0B = 0;
	OCR1A = 0;
	OCR1B = 0;
}

void updateMotorSpeed(uint8_t Gas,uint8_t Steer){
    2dbc:	ef 92       	push	r14
    2dbe:	ff 92       	push	r15
    2dc0:	0f 93       	push	r16
    2dc2:	1f 93       	push	r17
    2dc4:	cf 93       	push	r28
    2dc6:	df 93       	push	r29
	static uint16_t MotorL,MotorR;
	MotorL = computeLeft(Gas,Steer);
    2dc8:	06 2f       	mov	r16, r22
    2dca:	10 e0       	ldi	r17, 0x00	; 0
    2dcc:	c8 2f       	mov	r28, r24
    2dce:	d0 e0       	ldi	r29, 0x00	; 0
    2dd0:	b8 01       	movw	r22, r16
    2dd2:	ce 01       	movw	r24, r28
    2dd4:	0e 94 65 16 	call	0x2cca	; 0x2cca <_Z11computeLeftjj>
    2dd8:	7c 01       	movw	r14, r24
    2dda:	90 93 bc 05 	sts	0x05BC, r25	; 0x8005bc <_ZZ16updateMotorSpeedhhE6MotorL+0x1>
    2dde:	80 93 bb 05 	sts	0x05BB, r24	; 0x8005bb <_ZZ16updateMotorSpeedhhE6MotorL>
	MotorR = computeRight(Gas,Steer);
    2de2:	b8 01       	movw	r22, r16
    2de4:	ce 01       	movw	r24, r28
    2de6:	0e 94 a2 16 	call	0x2d44	; 0x2d44 <_Z12computeRightjj>
    2dea:	90 93 ba 05 	sts	0x05BA, r25	; 0x8005ba <_ZZ16updateMotorSpeedhhE6MotorR+0x1>
    2dee:	80 93 b9 05 	sts	0x05B9, r24	; 0x8005b9 <_ZZ16updateMotorSpeedhhE6MotorR>
	if(0x100 & MotorL && !(PORTB & (1 << 0))){
    2df2:	f0 fe       	sbrs	r15, 0
    2df4:	02 c0       	rjmp	.+4      	; 0x2dfa <_Z16updateMotorSpeedhh+0x3e>
    2df6:	28 9b       	sbis	0x05, 0	; 5
    2df8:	32 c0       	rjmp	.+100    	; 0x2e5e <_Z16updateMotorSpeedhh+0xa2>
		PORTB |= (1 << 0);
		PORTD &= ~(1 << 7);
		delay(5);
		OCR0B = MotorL & 0xFF;
	}
	if(0x100 & MotorL && PORTB & (1 << 0)){
    2dfa:	80 91 bb 05 	lds	r24, 0x05BB	; 0x8005bb <_ZZ16updateMotorSpeedhhE6MotorL>
    2dfe:	90 91 bc 05 	lds	r25, 0x05BC	; 0x8005bc <_ZZ16updateMotorSpeedhhE6MotorL+0x1>
    2e02:	90 ff       	sbrs	r25, 0
    2e04:	03 c0       	rjmp	.+6      	; 0x2e0c <_Z16updateMotorSpeedhh+0x50>
    2e06:	28 99       	sbic	0x05, 0	; 5
    2e08:	36 c0       	rjmp	.+108    	; 0x2e76 <_Z16updateMotorSpeedhh+0xba>
    2e0a:	03 c0       	rjmp	.+6      	; 0x2e12 <_Z16updateMotorSpeedhh+0x56>
		OCR0B = MotorL & 0xFF;
	}
	if(!(0x100 & MotorL) && !(PORTD & (1 << 7))){
    2e0c:	5f 9b       	sbis	0x0b, 7	; 11
    2e0e:	3b c0       	rjmp	.+118    	; 0x2e86 <_Z16updateMotorSpeedhh+0xca>
    2e10:	86 c0       	rjmp	.+268    	; 0x2f1e <_Z16updateMotorSpeedhh+0x162>
		PORTD |= (1 << 7);
		PORTB &= ~(1 << 0);
		delay(5);
		OCR0A = MotorL & 0xFF;
	}
	if(!(0x100 & MotorL) && PORTD & (1 << 7)){
    2e12:	80 91 bb 05 	lds	r24, 0x05BB	; 0x8005bb <_ZZ16updateMotorSpeedhhE6MotorL>
    2e16:	90 91 bc 05 	lds	r25, 0x05BC	; 0x8005bc <_ZZ16updateMotorSpeedhhE6MotorL+0x1>
    2e1a:	90 fd       	sbrc	r25, 0
    2e1c:	02 c0       	rjmp	.+4      	; 0x2e22 <_Z16updateMotorSpeedhh+0x66>
    2e1e:	5f 99       	sbic	0x0b, 7	; 11
    2e20:	3e c0       	rjmp	.+124    	; 0x2e9e <_Z16updateMotorSpeedhh+0xe2>
		OCR0A = MotorL & 0xFF;
	}
	
	if(0x100 & MotorR && !(PORTB & (1 << 3))){
    2e22:	80 91 b9 05 	lds	r24, 0x05B9	; 0x8005b9 <_ZZ16updateMotorSpeedhhE6MotorR>
    2e26:	90 91 ba 05 	lds	r25, 0x05BA	; 0x8005ba <_ZZ16updateMotorSpeedhhE6MotorR+0x1>
    2e2a:	90 ff       	sbrs	r25, 0
    2e2c:	06 c0       	rjmp	.+12     	; 0x2e3a <_Z16updateMotorSpeedhh+0x7e>
    2e2e:	2b 9b       	sbis	0x05, 3	; 5
    2e30:	38 c0       	rjmp	.+112    	; 0x2ea2 <_Z16updateMotorSpeedhh+0xe6>
    2e32:	7a c0       	rjmp	.+244    	; 0x2f28 <_Z16updateMotorSpeedhh+0x16c>
		PORTB |= (1 << 3);
		PORTB &= ~(1 << 4);
		delay(5);
		OCR1B = MotorR & 0xFF;
	}
	if(0x100 & MotorR && PORTB & (1 << 3)){
    2e34:	2b 99       	sbic	0x05, 3	; 5
    2e36:	51 c0       	rjmp	.+162    	; 0x2eda <_Z16updateMotorSpeedhh+0x11e>
    2e38:	09 c0       	rjmp	.+18     	; 0x2e4c <_Z16updateMotorSpeedhh+0x90>
		OCR1B = MotorR & 0xFF;
	}
	
	if(!(0x100 & MotorR) && !(PORTB & (1 << 4))){
    2e3a:	80 91 b9 05 	lds	r24, 0x05B9	; 0x8005b9 <_ZZ16updateMotorSpeedhhE6MotorR>
    2e3e:	90 91 ba 05 	lds	r25, 0x05BA	; 0x8005ba <_ZZ16updateMotorSpeedhhE6MotorR+0x1>
    2e42:	90 fd       	sbrc	r25, 0
    2e44:	7b c0       	rjmp	.+246    	; 0x2f3c <_Z16updateMotorSpeedhh+0x180>
    2e46:	2c 9b       	sbis	0x05, 4	; 5
    2e48:	4e c0       	rjmp	.+156    	; 0x2ee6 <_Z16updateMotorSpeedhh+0x12a>
    2e4a:	73 c0       	rjmp	.+230    	; 0x2f32 <_Z16updateMotorSpeedhh+0x176>
		PORTB |= (1 << 4);
		PORTB &= ~(1 << 3);
		delay(5);
		OCR1A = MotorR & 0xFF;
	}
	if(!(0x100 & MotorR) && PORTB & (1 << 4)){
    2e4c:	80 91 b9 05 	lds	r24, 0x05B9	; 0x8005b9 <_ZZ16updateMotorSpeedhhE6MotorR>
    2e50:	90 91 ba 05 	lds	r25, 0x05BA	; 0x8005ba <_ZZ16updateMotorSpeedhhE6MotorR+0x1>
    2e54:	90 fd       	sbrc	r25, 0
    2e56:	72 c0       	rjmp	.+228    	; 0x2f3c <_Z16updateMotorSpeedhh+0x180>
    2e58:	2c 99       	sbic	0x05, 4	; 5
    2e5a:	5b c0       	rjmp	.+182    	; 0x2f12 <_Z16updateMotorSpeedhh+0x156>
    2e5c:	6f c0       	rjmp	.+222    	; 0x2f3c <_Z16updateMotorSpeedhh+0x180>
void updateMotorSpeed(uint8_t Gas,uint8_t Steer){
	static uint16_t MotorL,MotorR;
	MotorL = computeLeft(Gas,Steer);
	MotorR = computeRight(Gas,Steer);
	if(0x100 & MotorL && !(PORTB & (1 << 0))){
		OCR0A = 0;
    2e5e:	17 bc       	out	0x27, r1	; 39
		OCR0B = 0;
    2e60:	18 bc       	out	0x28, r1	; 40
		PORTB |= (1 << 0);
    2e62:	28 9a       	sbi	0x05, 0	; 5
		PORTD &= ~(1 << 7);
    2e64:	5f 98       	cbi	0x0b, 7	; 11
		delay(5);
    2e66:	85 e0       	ldi	r24, 0x05	; 5
    2e68:	90 e0       	ldi	r25, 0x00	; 0
    2e6a:	0e 94 68 13 	call	0x26d0	; 0x26d0 <_Z5delayj>
		OCR0B = MotorL & 0xFF;
    2e6e:	80 91 bb 05 	lds	r24, 0x05BB	; 0x8005bb <_ZZ16updateMotorSpeedhhE6MotorL>
    2e72:	88 bd       	out	0x28, r24	; 40
    2e74:	c2 cf       	rjmp	.-124    	; 0x2dfa <_Z16updateMotorSpeedhh+0x3e>
	}
	if(0x100 & MotorL && PORTB & (1 << 0)){
		OCR0B = MotorL & 0xFF;
    2e76:	88 bd       	out	0x28, r24	; 40
	}
	if(!(0x100 & MotorL) && !(PORTD & (1 << 7))){
    2e78:	80 91 bb 05 	lds	r24, 0x05BB	; 0x8005bb <_ZZ16updateMotorSpeedhhE6MotorL>
    2e7c:	90 91 bc 05 	lds	r25, 0x05BC	; 0x8005bc <_ZZ16updateMotorSpeedhhE6MotorL+0x1>
    2e80:	90 fd       	sbrc	r25, 0
    2e82:	cf cf       	rjmp	.-98     	; 0x2e22 <_Z16updateMotorSpeedhh+0x66>
    2e84:	c3 cf       	rjmp	.-122    	; 0x2e0c <_Z16updateMotorSpeedhh+0x50>
		OCR0A = 0;
    2e86:	17 bc       	out	0x27, r1	; 39
		OCR0B = 0;
    2e88:	18 bc       	out	0x28, r1	; 40
		PORTD |= (1 << 7);
    2e8a:	5f 9a       	sbi	0x0b, 7	; 11
		PORTB &= ~(1 << 0);
    2e8c:	28 98       	cbi	0x05, 0	; 5
		delay(5);
    2e8e:	85 e0       	ldi	r24, 0x05	; 5
    2e90:	90 e0       	ldi	r25, 0x00	; 0
    2e92:	0e 94 68 13 	call	0x26d0	; 0x26d0 <_Z5delayj>
		OCR0A = MotorL & 0xFF;
    2e96:	80 91 bb 05 	lds	r24, 0x05BB	; 0x8005bb <_ZZ16updateMotorSpeedhhE6MotorL>
    2e9a:	87 bd       	out	0x27, r24	; 39
    2e9c:	ba cf       	rjmp	.-140    	; 0x2e12 <_Z16updateMotorSpeedhh+0x56>
	}
	if(!(0x100 & MotorL) && PORTD & (1 << 7)){
		OCR0A = MotorL & 0xFF;
    2e9e:	87 bd       	out	0x27, r24	; 39
    2ea0:	c0 cf       	rjmp	.-128    	; 0x2e22 <_Z16updateMotorSpeedhh+0x66>
	}
	
	if(0x100 & MotorR && !(PORTB & (1 << 3))){
		OCR1A = 0;
    2ea2:	10 92 89 00 	sts	0x0089, r1	; 0x800089 <__TEXT_REGION_LENGTH__+0x7e0089>
    2ea6:	10 92 88 00 	sts	0x0088, r1	; 0x800088 <__TEXT_REGION_LENGTH__+0x7e0088>
		OCR1B = 0;
    2eaa:	ca e8       	ldi	r28, 0x8A	; 138
    2eac:	d0 e0       	ldi	r29, 0x00	; 0
    2eae:	19 82       	std	Y+1, r1	; 0x01
    2eb0:	18 82       	st	Y, r1
		PORTB |= (1 << 3);
    2eb2:	2b 9a       	sbi	0x05, 3	; 5
		PORTB &= ~(1 << 4);
    2eb4:	2c 98       	cbi	0x05, 4	; 5
		delay(5);
    2eb6:	85 e0       	ldi	r24, 0x05	; 5
    2eb8:	90 e0       	ldi	r25, 0x00	; 0
    2eba:	0e 94 68 13 	call	0x26d0	; 0x26d0 <_Z5delayj>
		OCR1B = MotorR & 0xFF;
    2ebe:	80 91 b9 05 	lds	r24, 0x05B9	; 0x8005b9 <_ZZ16updateMotorSpeedhhE6MotorR>
    2ec2:	90 91 ba 05 	lds	r25, 0x05BA	; 0x8005ba <_ZZ16updateMotorSpeedhhE6MotorR+0x1>
    2ec6:	99 27       	eor	r25, r25
    2ec8:	99 83       	std	Y+1, r25	; 0x01
    2eca:	88 83       	st	Y, r24
	}
	if(0x100 & MotorR && PORTB & (1 << 3)){
    2ecc:	80 91 b9 05 	lds	r24, 0x05B9	; 0x8005b9 <_ZZ16updateMotorSpeedhhE6MotorR>
    2ed0:	90 91 ba 05 	lds	r25, 0x05BA	; 0x8005ba <_ZZ16updateMotorSpeedhhE6MotorR+0x1>
    2ed4:	90 fd       	sbrc	r25, 0
    2ed6:	ae cf       	rjmp	.-164    	; 0x2e34 <_Z16updateMotorSpeedhh+0x78>
    2ed8:	b6 cf       	rjmp	.-148    	; 0x2e46 <_Z16updateMotorSpeedhh+0x8a>
		OCR1B = MotorR & 0xFF;
    2eda:	99 27       	eor	r25, r25
    2edc:	90 93 8b 00 	sts	0x008B, r25	; 0x80008b <__TEXT_REGION_LENGTH__+0x7e008b>
    2ee0:	80 93 8a 00 	sts	0x008A, r24	; 0x80008a <__TEXT_REGION_LENGTH__+0x7e008a>
    2ee4:	aa cf       	rjmp	.-172    	; 0x2e3a <_Z16updateMotorSpeedhh+0x7e>
	}
	
	if(!(0x100 & MotorR) && !(PORTB & (1 << 4))){
		OCR1A = 0;
    2ee6:	c8 e8       	ldi	r28, 0x88	; 136
    2ee8:	d0 e0       	ldi	r29, 0x00	; 0
    2eea:	19 82       	std	Y+1, r1	; 0x01
    2eec:	18 82       	st	Y, r1
		OCR1B = 0;
    2eee:	10 92 8b 00 	sts	0x008B, r1	; 0x80008b <__TEXT_REGION_LENGTH__+0x7e008b>
    2ef2:	10 92 8a 00 	sts	0x008A, r1	; 0x80008a <__TEXT_REGION_LENGTH__+0x7e008a>
		PORTB |= (1 << 4);
    2ef6:	2c 9a       	sbi	0x05, 4	; 5
		PORTB &= ~(1 << 3);
    2ef8:	2b 98       	cbi	0x05, 3	; 5
		delay(5);
    2efa:	85 e0       	ldi	r24, 0x05	; 5
    2efc:	90 e0       	ldi	r25, 0x00	; 0
    2efe:	0e 94 68 13 	call	0x26d0	; 0x26d0 <_Z5delayj>
		OCR1A = MotorR & 0xFF;
    2f02:	80 91 b9 05 	lds	r24, 0x05B9	; 0x8005b9 <_ZZ16updateMotorSpeedhhE6MotorR>
    2f06:	90 91 ba 05 	lds	r25, 0x05BA	; 0x8005ba <_ZZ16updateMotorSpeedhhE6MotorR+0x1>
    2f0a:	99 27       	eor	r25, r25
    2f0c:	99 83       	std	Y+1, r25	; 0x01
    2f0e:	88 83       	st	Y, r24
    2f10:	9d cf       	rjmp	.-198    	; 0x2e4c <_Z16updateMotorSpeedhh+0x90>
	}
	if(!(0x100 & MotorR) && PORTB & (1 << 4)){
		OCR1A = MotorR & 0xFF;
    2f12:	99 27       	eor	r25, r25
    2f14:	90 93 89 00 	sts	0x0089, r25	; 0x800089 <__TEXT_REGION_LENGTH__+0x7e0089>
    2f18:	80 93 88 00 	sts	0x0088, r24	; 0x800088 <__TEXT_REGION_LENGTH__+0x7e0088>
    2f1c:	0f c0       	rjmp	.+30     	; 0x2f3c <_Z16updateMotorSpeedhh+0x180>
		PORTD |= (1 << 7);
		PORTB &= ~(1 << 0);
		delay(5);
		OCR0A = MotorL & 0xFF;
	}
	if(!(0x100 & MotorL) && PORTD & (1 << 7)){
    2f1e:	80 91 bb 05 	lds	r24, 0x05BB	; 0x8005bb <_ZZ16updateMotorSpeedhhE6MotorL>
    2f22:	90 91 bc 05 	lds	r25, 0x05BC	; 0x8005bc <_ZZ16updateMotorSpeedhhE6MotorL+0x1>
    2f26:	7b cf       	rjmp	.-266    	; 0x2e1e <_Z16updateMotorSpeedhh+0x62>
		PORTB |= (1 << 3);
		PORTB &= ~(1 << 4);
		delay(5);
		OCR1B = MotorR & 0xFF;
	}
	if(0x100 & MotorR && PORTB & (1 << 3)){
    2f28:	80 91 b9 05 	lds	r24, 0x05B9	; 0x8005b9 <_ZZ16updateMotorSpeedhhE6MotorR>
    2f2c:	90 91 ba 05 	lds	r25, 0x05BA	; 0x8005ba <_ZZ16updateMotorSpeedhhE6MotorR+0x1>
    2f30:	81 cf       	rjmp	.-254    	; 0x2e34 <_Z16updateMotorSpeedhh+0x78>
		PORTB |= (1 << 4);
		PORTB &= ~(1 << 3);
		delay(5);
		OCR1A = MotorR & 0xFF;
	}
	if(!(0x100 & MotorR) && PORTB & (1 << 4)){
    2f32:	80 91 b9 05 	lds	r24, 0x05B9	; 0x8005b9 <_ZZ16updateMotorSpeedhhE6MotorR>
    2f36:	90 91 ba 05 	lds	r25, 0x05BA	; 0x8005ba <_ZZ16updateMotorSpeedhhE6MotorR+0x1>
    2f3a:	8e cf       	rjmp	.-228    	; 0x2e58 <_Z16updateMotorSpeedhh+0x9c>
		if(PORTB & (1 << 3))
		OCR1A = MotorR;
		else
		OCR1B = MotorR;
	}*/
}
    2f3c:	df 91       	pop	r29
    2f3e:	cf 91       	pop	r28
    2f40:	1f 91       	pop	r17
    2f42:	0f 91       	pop	r16
    2f44:	ff 90       	pop	r15
    2f46:	ef 90       	pop	r14
    2f48:	08 95       	ret

00002f4a <_ZN5PS3BT5ResetEv>:
        }
}

void PS3BT::setLedToggle(LEDEnum a) {
        HIDBuffer[11] ^= (uint8_t)((pgm_read_byte(&PS3_LEDS[(uint8_t)a]) & 0x0f) << 1);
        HID_Command(HIDBuffer, HID_BUFFERSIZE);
    2f4a:	cf 93       	push	r28
    2f4c:	df 93       	push	r29
    2f4e:	ec 01       	movw	r28, r24
    2f50:	1d 86       	std	Y+13, r1	; 0x0d
    2f52:	1e 86       	std	Y+14, r1	; 0x0e
    2f54:	1f 86       	std	Y+15, r1	; 0x0f
    2f56:	19 8a       	std	Y+17, r1	; 0x11
    2f58:	18 86       	std	Y+8, r1	; 0x08
    2f5a:	19 86       	std	Y+9, r1	; 0x09
    2f5c:	1a 86       	std	Y+10, r1	; 0x0a
    2f5e:	1b 86       	std	Y+11, r1	; 0x0b
    2f60:	1a 8a       	std	Y+18, r1	; 0x12
    2f62:	ec 81       	ldd	r30, Y+4	; 0x04
    2f64:	fd 81       	ldd	r31, Y+5	; 0x05
    2f66:	e8 5b       	subi	r30, 0xB8	; 184
    2f68:	ff 4f       	sbci	r31, 0xFF	; 255
    2f6a:	8a e0       	ldi	r24, 0x0A	; 10
    2f6c:	80 83       	st	Z, r24
    2f6e:	82 e0       	ldi	r24, 0x02	; 2
    2f70:	90 e0       	ldi	r25, 0x00	; 0
    2f72:	0e 94 ce 13 	call	0x279c	; 0x279c <_Z17setIndicatorCountj>
    2f76:	8c e0       	ldi	r24, 0x0C	; 12
    2f78:	90 e0       	ldi	r25, 0x00	; 0
    2f7a:	0e 94 c5 12 	call	0x258a	; 0x258a <_Z11USART1_Initj>
    2f7e:	0e 94 36 16 	call	0x2c6c	; 0x2c6c <_Z13disable_Motorv>
    2f82:	ed e8       	ldi	r30, 0x8D	; 141
    2f84:	fc e0       	ldi	r31, 0x0C	; 12
    2f86:	de 01       	movw	r26, r28
    2f88:	a3 59       	subi	r26, 0x93	; 147
    2f8a:	bf 4f       	sbci	r27, 0xFF	; 255
    2f8c:	9e 01       	movw	r18, r28
    2f8e:	23 56       	subi	r18, 0x63	; 99
    2f90:	3f 4f       	sbci	r19, 0xFF	; 255
    2f92:	84 91       	lpm	r24, Z
    2f94:	8d 93       	st	X+, r24
    2f96:	31 96       	adiw	r30, 0x01	; 1
    2f98:	a2 17       	cp	r26, r18
    2f9a:	b3 07       	cpc	r27, r19
    2f9c:	d1 f7       	brne	.-12     	; 0x2f92 <_ZN5PS3BT5ResetEv+0x48>
    2f9e:	df 91       	pop	r29
    2fa0:	cf 91       	pop	r28
    2fa2:	08 95       	ret

00002fa4 <_ZN5PS3BT10disconnectEv>:
    2fa4:	0f 93       	push	r16
    2fa6:	1f 93       	push	r17
    2fa8:	cf 93       	push	r28
    2faa:	df 93       	push	r29
    2fac:	ec 01       	movw	r28, r24
    2fae:	4c 85       	ldd	r20, Y+12	; 0x0c
    2fb0:	4f 5f       	subi	r20, 0xFF	; 255
    2fb2:	4c 87       	std	Y+12, r20	; 0x0c
    2fb4:	8c 01       	movw	r16, r24
    2fb6:	0b 52       	subi	r16, 0x2B	; 43
    2fb8:	1f 4f       	sbci	r17, 0xFF	; 255
    2fba:	9c 01       	movw	r18, r24
    2fbc:	2d 52       	subi	r18, 0x2D	; 45
    2fbe:	3f 4f       	sbci	r19, 0xFF	; 255
    2fc0:	6e 81       	ldd	r22, Y+6	; 0x06
    2fc2:	7f 81       	ldd	r23, Y+7	; 0x07
    2fc4:	8c 81       	ldd	r24, Y+4	; 0x04
    2fc6:	9d 81       	ldd	r25, Y+5	; 0x05
    2fc8:	0e 94 f6 11 	call	0x23ec	; 0x23ec <_ZN3BTD27l2cap_disconnection_requestEjhPhS0_>
    2fcc:	e8 81       	ld	r30, Y
    2fce:	f9 81       	ldd	r31, Y+1	; 0x01
    2fd0:	04 80       	ldd	r0, Z+4	; 0x04
    2fd2:	f5 81       	ldd	r31, Z+5	; 0x05
    2fd4:	e0 2d       	mov	r30, r0
    2fd6:	ce 01       	movw	r24, r28
    2fd8:	09 95       	icall
    2fda:	89 e0       	ldi	r24, 0x09	; 9
    2fdc:	8a 8b       	std	Y+18, r24	; 0x12
    2fde:	df 91       	pop	r29
    2fe0:	cf 91       	pop	r28
    2fe2:	1f 91       	pop	r17
    2fe4:	0f 91       	pop	r16
    2fe6:	08 95       	ret

00002fe8 <_ZN5PS3BTC1EP3BTDhhhhhh>:
    2fe8:	af 92       	push	r10
    2fea:	cf 92       	push	r12
    2fec:	ef 92       	push	r14
    2fee:	0f 93       	push	r16
    2ff0:	fc 01       	movw	r30, r24
    2ff2:	75 83       	std	Z+5, r23	; 0x05
    2ff4:	64 83       	std	Z+4, r22	; 0x04
    2ff6:	db 01       	movw	r26, r22
    2ff8:	ae 5b       	subi	r26, 0xBE	; 190
    2ffa:	bf 4f       	sbci	r27, 0xFF	; 255
    2ffc:	8d 93       	st	X+, r24
    2ffe:	9c 93       	st	X, r25
    3000:	86 e3       	ldi	r24, 0x36	; 54
    3002:	92 e0       	ldi	r25, 0x02	; 2
    3004:	91 83       	std	Z+1, r25	; 0x01
    3006:	80 83       	st	Z, r24
    3008:	a4 81       	ldd	r26, Z+4	; 0x04
    300a:	b5 81       	ldd	r27, Z+5	; 0x05
    300c:	1d 96       	adiw	r26, 0x0d	; 13
    300e:	4c 93       	st	X, r20
    3010:	a4 81       	ldd	r26, Z+4	; 0x04
    3012:	b5 81       	ldd	r27, Z+5	; 0x05
    3014:	1c 96       	adiw	r26, 0x0c	; 12
    3016:	2c 93       	st	X, r18
    3018:	a4 81       	ldd	r26, Z+4	; 0x04
    301a:	b5 81       	ldd	r27, Z+5	; 0x05
    301c:	1b 96       	adiw	r26, 0x0b	; 11
    301e:	0c 93       	st	X, r16
    3020:	a4 81       	ldd	r26, Z+4	; 0x04
    3022:	b5 81       	ldd	r27, Z+5	; 0x05
    3024:	1a 96       	adiw	r26, 0x0a	; 10
    3026:	ec 92       	st	X, r14
    3028:	a4 81       	ldd	r26, Z+4	; 0x04
    302a:	b5 81       	ldd	r27, Z+5	; 0x05
    302c:	19 96       	adiw	r26, 0x09	; 9
    302e:	cc 92       	st	X, r12
    3030:	a4 81       	ldd	r26, Z+4	; 0x04
    3032:	b5 81       	ldd	r27, Z+5	; 0x05
    3034:	18 96       	adiw	r26, 0x08	; 8
    3036:	ac 92       	st	X, r10
    3038:	df 01       	movw	r26, r30
    303a:	a5 59       	subi	r26, 0x95	; 149
    303c:	bf 4f       	sbci	r27, 0xFF	; 255
    303e:	82 e5       	ldi	r24, 0x52	; 82
    3040:	8c 93       	st	X, r24
    3042:	11 96       	adiw	r26, 0x01	; 1
    3044:	81 e0       	ldi	r24, 0x01	; 1
    3046:	8c 93       	st	X, r24
    3048:	d1 96       	adiw	r26, 0x31	; 49
    304a:	82 ea       	ldi	r24, 0xA2	; 162
    304c:	8c 93       	st	X, r24
    304e:	11 96       	adiw	r26, 0x01	; 1
    3050:	82 e0       	ldi	r24, 0x02	; 2
    3052:	8c 93       	st	X, r24
    3054:	d3 96       	adiw	r26, 0x33	; 51
    3056:	80 e4       	ldi	r24, 0x40	; 64
    3058:	8c 93       	st	X, r24
    305a:	11 96       	adiw	r26, 0x01	; 1
    305c:	1c 92       	st	X, r1
    305e:	13 96       	adiw	r26, 0x03	; 3
    3060:	81 e4       	ldi	r24, 0x41	; 65
    3062:	8c 93       	st	X, r24
    3064:	11 96       	adiw	r26, 0x01	; 1
    3066:	1c 92       	st	X, r1
    3068:	cf 01       	movw	r24, r30
    306a:	0e 94 a5 17 	call	0x2f4a	; 0x2f4a <_ZN5PS3BT5ResetEv>
    306e:	0f 91       	pop	r16
    3070:	ef 90       	pop	r14
    3072:	cf 90       	pop	r12
    3074:	af 90       	pop	r10
    3076:	08 95       	ret

00003078 <_ZN5PS3BT14getButtonClickE10ButtonEnum>:
    3078:	cf 92       	push	r12
    307a:	df 92       	push	r13
    307c:	ef 92       	push	r14
    307e:	ff 92       	push	r15
    3080:	0f 93       	push	r16
    3082:	1f 93       	push	r17
    3084:	e6 2f       	mov	r30, r22
    3086:	f0 e0       	ldi	r31, 0x00	; 0
    3088:	ee 0f       	add	r30, r30
    308a:	ff 1f       	adc	r31, r31
    308c:	ee 0f       	add	r30, r30
    308e:	ff 1f       	adc	r31, r31
    3090:	ea 5c       	subi	r30, 0xCA	; 202
    3092:	f3 4f       	sbci	r31, 0xF3	; 243
    3094:	c5 90       	lpm	r12, Z+
    3096:	d5 90       	lpm	r13, Z+
    3098:	e5 90       	lpm	r14, Z+
    309a:	f4 90       	lpm	r15, Z
    309c:	fc 01       	movw	r30, r24
    309e:	47 8d       	ldd	r20, Z+31	; 0x1f
    30a0:	50 a1       	ldd	r21, Z+32	; 0x20
    30a2:	61 a1       	ldd	r22, Z+33	; 0x21
    30a4:	72 a1       	ldd	r23, Z+34	; 0x22
    30a6:	97 01       	movw	r18, r14
    30a8:	86 01       	movw	r16, r12
    30aa:	00 95       	com	r16
    30ac:	10 95       	com	r17
    30ae:	20 95       	com	r18
    30b0:	30 95       	com	r19
    30b2:	04 23       	and	r16, r20
    30b4:	15 23       	and	r17, r21
    30b6:	26 23       	and	r18, r22
    30b8:	37 23       	and	r19, r23
    30ba:	07 8f       	std	Z+31, r16	; 0x1f
    30bc:	10 a3       	std	Z+32, r17	; 0x20
    30be:	21 a3       	std	Z+33, r18	; 0x21
    30c0:	32 a3       	std	Z+34, r19	; 0x22
    30c2:	4c 21       	and	r20, r12
    30c4:	5d 21       	and	r21, r13
    30c6:	6e 21       	and	r22, r14
    30c8:	7f 21       	and	r23, r15
    30ca:	81 e0       	ldi	r24, 0x01	; 1
    30cc:	45 2b       	or	r20, r21
    30ce:	46 2b       	or	r20, r22
    30d0:	47 2b       	or	r20, r23
    30d2:	09 f4       	brne	.+2      	; 0x30d6 <_ZN5PS3BT14getButtonClickE10ButtonEnum+0x5e>
    30d4:	80 e0       	ldi	r24, 0x00	; 0
    30d6:	1f 91       	pop	r17
    30d8:	0f 91       	pop	r16
    30da:	ff 90       	pop	r15
    30dc:	ef 90       	pop	r14
    30de:	df 90       	pop	r13
    30e0:	cf 90       	pop	r12
    30e2:	08 95       	ret

000030e4 <_ZN5PS3BT12getAnalogHatE13AnalogHatEnum>:
    30e4:	86 0f       	add	r24, r22
    30e6:	91 1d       	adc	r25, r1
    30e8:	fc 01       	movw	r30, r24
    30ea:	82 ad       	ldd	r24, Z+58	; 0x3a
    30ec:	08 95       	ret

000030ee <_ZN5PS3BT10L2CAP_taskEv>:
    30ee:	af 92       	push	r10
    30f0:	bf 92       	push	r11
    30f2:	cf 92       	push	r12
    30f4:	df 92       	push	r13
    30f6:	ef 92       	push	r14
    30f8:	0f 93       	push	r16
    30fa:	1f 93       	push	r17
    30fc:	cf 93       	push	r28
    30fe:	df 93       	push	r29
    3100:	ec 01       	movw	r28, r24
    3102:	8a 89       	ldd	r24, Y+18	; 0x12
    3104:	85 30       	cpi	r24, 0x05	; 5
    3106:	09 f4       	brne	.+2      	; 0x310a <_ZN5PS3BT10L2CAP_taskEv+0x1c>
    3108:	c8 c0       	rjmp	.+400    	; 0x329a <_ZN5PS3BT10L2CAP_taskEv+0x1ac>
    310a:	30 f4       	brcc	.+12     	; 0x3118 <_ZN5PS3BT10L2CAP_taskEv+0x2a>
    310c:	88 23       	and	r24, r24
    310e:	71 f0       	breq	.+28     	; 0x312c <_ZN5PS3BT10L2CAP_taskEv+0x3e>
    3110:	84 30       	cpi	r24, 0x04	; 4
    3112:	09 f4       	brne	.+2      	; 0x3116 <_ZN5PS3BT10L2CAP_taskEv+0x28>
    3114:	45 c0       	rjmp	.+138    	; 0x31a0 <_ZN5PS3BT10L2CAP_taskEv+0xb2>
    3116:	d8 c0       	rjmp	.+432    	; 0x32c8 <_ZN5PS3BT10L2CAP_taskEv+0x1da>
    3118:	88 30       	cpi	r24, 0x08	; 8
    311a:	09 f4       	brne	.+2      	; 0x311e <_ZN5PS3BT10L2CAP_taskEv+0x30>
    311c:	86 c0       	rjmp	.+268    	; 0x322a <_ZN5PS3BT10L2CAP_taskEv+0x13c>
    311e:	89 30       	cpi	r24, 0x09	; 9
    3120:	09 f4       	brne	.+2      	; 0x3124 <_ZN5PS3BT10L2CAP_taskEv+0x36>
    3122:	a1 c0       	rjmp	.+322    	; 0x3266 <_ZN5PS3BT10L2CAP_taskEv+0x178>
    3124:	86 30       	cpi	r24, 0x06	; 6
    3126:	09 f0       	breq	.+2      	; 0x312a <_ZN5PS3BT10L2CAP_taskEv+0x3c>
    3128:	cf c0       	rjmp	.+414    	; 0x32c8 <_ZN5PS3BT10L2CAP_taskEv+0x1da>
    312a:	45 c0       	rjmp	.+138    	; 0x31b6 <_ZN5PS3BT10L2CAP_taskEv+0xc8>
    312c:	88 85       	ldd	r24, Y+8	; 0x08
    312e:	80 ff       	sbrs	r24, 0
    3130:	cb c0       	rjmp	.+406    	; 0x32c8 <_ZN5PS3BT10L2CAP_taskEv+0x1da>
    3132:	60 e8       	ldi	r22, 0x80	; 128
    3134:	83 eb       	ldi	r24, 0xB3	; 179
    3136:	9a e0       	ldi	r25, 0x0A	; 10
    3138:	0e 94 27 13 	call	0x264e	; 0x264e <_Z6NotifyPKch>
    313c:	6e 01       	movw	r12, r28
    313e:	8f ec       	ldi	r24, 0xCF	; 207
    3140:	c8 0e       	add	r12, r24
    3142:	d1 1c       	adc	r13, r1
    3144:	5e 01       	movw	r10, r28
    3146:	a1 ed       	ldi	r26, 0xD1	; 209
    3148:	aa 0e       	add	r10, r26
    314a:	b1 1c       	adc	r11, r1
    314c:	6e 81       	ldd	r22, Y+6	; 0x06
    314e:	7f 81       	ldd	r23, Y+7	; 0x07
    3150:	ee 24       	eor	r14, r14
    3152:	e3 94       	inc	r14
    3154:	86 01       	movw	r16, r12
    3156:	95 01       	movw	r18, r10
    3158:	4c 85       	ldd	r20, Y+12	; 0x0c
    315a:	8c 81       	ldd	r24, Y+4	; 0x04
    315c:	9d 81       	ldd	r25, Y+5	; 0x05
    315e:	0e 94 4b 11 	call	0x2296	; 0x2296 <_ZN3BTD25l2cap_connection_responseEjhPhS0_h>
    3162:	85 e0       	ldi	r24, 0x05	; 5
    3164:	90 e0       	ldi	r25, 0x00	; 0
    3166:	0e 94 68 13 	call	0x26d0	; 0x26d0 <_Z5delayj>
    316a:	6e 81       	ldd	r22, Y+6	; 0x06
    316c:	7f 81       	ldd	r23, Y+7	; 0x07
    316e:	e1 2c       	mov	r14, r1
    3170:	95 01       	movw	r18, r10
    3172:	4c 85       	ldd	r20, Y+12	; 0x0c
    3174:	8c 81       	ldd	r24, Y+4	; 0x04
    3176:	9d 81       	ldd	r25, Y+5	; 0x05
    3178:	0e 94 4b 11 	call	0x2296	; 0x2296 <_ZN3BTD25l2cap_connection_responseEjhPhS0_h>
    317c:	8c 85       	ldd	r24, Y+12	; 0x0c
    317e:	8f 5f       	subi	r24, 0xFF	; 255
    3180:	8c 87       	std	Y+12, r24	; 0x0c
    3182:	85 e0       	ldi	r24, 0x05	; 5
    3184:	90 e0       	ldi	r25, 0x00	; 0
    3186:	0e 94 68 13 	call	0x26d0	; 0x26d0 <_Z5delayj>
    318a:	6e 81       	ldd	r22, Y+6	; 0x06
    318c:	7f 81       	ldd	r23, Y+7	; 0x07
    318e:	96 01       	movw	r18, r12
    3190:	4c 85       	ldd	r20, Y+12	; 0x0c
    3192:	8c 81       	ldd	r24, Y+4	; 0x04
    3194:	9d 81       	ldd	r25, Y+5	; 0x05
    3196:	0e 94 88 11 	call	0x2310	; 0x2310 <_ZN3BTD20l2cap_config_requestEjhPh>
    319a:	84 e0       	ldi	r24, 0x04	; 4
    319c:	8a 8b       	std	Y+18, r24	; 0x12
    319e:	94 c0       	rjmp	.+296    	; 0x32c8 <_ZN5PS3BT10L2CAP_taskEv+0x1da>
    31a0:	88 85       	ldd	r24, Y+8	; 0x08
    31a2:	81 ff       	sbrs	r24, 1
    31a4:	91 c0       	rjmp	.+290    	; 0x32c8 <_ZN5PS3BT10L2CAP_taskEv+0x1da>
    31a6:	60 e8       	ldi	r22, 0x80	; 128
    31a8:	8d e8       	ldi	r24, 0x8D	; 141
    31aa:	9a e0       	ldi	r25, 0x0A	; 10
    31ac:	0e 94 27 13 	call	0x264e	; 0x264e <_Z6NotifyPKch>
    31b0:	86 e0       	ldi	r24, 0x06	; 6
    31b2:	8a 8b       	std	Y+18, r24	; 0x12
    31b4:	89 c0       	rjmp	.+274    	; 0x32c8 <_ZN5PS3BT10L2CAP_taskEv+0x1da>
    31b6:	88 85       	ldd	r24, Y+8	; 0x08
    31b8:	84 ff       	sbrs	r24, 4
    31ba:	86 c0       	rjmp	.+268    	; 0x32c8 <_ZN5PS3BT10L2CAP_taskEv+0x1da>
    31bc:	60 e8       	ldi	r22, 0x80	; 128
    31be:	81 e6       	ldi	r24, 0x61	; 97
    31c0:	9a e0       	ldi	r25, 0x0A	; 10
    31c2:	0e 94 27 13 	call	0x264e	; 0x264e <_Z6NotifyPKch>
    31c6:	6e 01       	movw	r12, r28
    31c8:	b3 ed       	ldi	r27, 0xD3	; 211
    31ca:	cb 0e       	add	r12, r27
    31cc:	d1 1c       	adc	r13, r1
    31ce:	5e 01       	movw	r10, r28
    31d0:	85 ed       	ldi	r24, 0xD5	; 213
    31d2:	a8 0e       	add	r10, r24
    31d4:	b1 1c       	adc	r11, r1
    31d6:	6e 81       	ldd	r22, Y+6	; 0x06
    31d8:	7f 81       	ldd	r23, Y+7	; 0x07
    31da:	ee 24       	eor	r14, r14
    31dc:	e3 94       	inc	r14
    31de:	86 01       	movw	r16, r12
    31e0:	95 01       	movw	r18, r10
    31e2:	4c 85       	ldd	r20, Y+12	; 0x0c
    31e4:	8c 81       	ldd	r24, Y+4	; 0x04
    31e6:	9d 81       	ldd	r25, Y+5	; 0x05
    31e8:	0e 94 4b 11 	call	0x2296	; 0x2296 <_ZN3BTD25l2cap_connection_responseEjhPhS0_h>
    31ec:	85 e0       	ldi	r24, 0x05	; 5
    31ee:	90 e0       	ldi	r25, 0x00	; 0
    31f0:	0e 94 68 13 	call	0x26d0	; 0x26d0 <_Z5delayj>
    31f4:	6e 81       	ldd	r22, Y+6	; 0x06
    31f6:	7f 81       	ldd	r23, Y+7	; 0x07
    31f8:	e1 2c       	mov	r14, r1
    31fa:	95 01       	movw	r18, r10
    31fc:	4c 85       	ldd	r20, Y+12	; 0x0c
    31fe:	8c 81       	ldd	r24, Y+4	; 0x04
    3200:	9d 81       	ldd	r25, Y+5	; 0x05
    3202:	0e 94 4b 11 	call	0x2296	; 0x2296 <_ZN3BTD25l2cap_connection_responseEjhPhS0_h>
    3206:	8c 85       	ldd	r24, Y+12	; 0x0c
    3208:	8f 5f       	subi	r24, 0xFF	; 255
    320a:	8c 87       	std	Y+12, r24	; 0x0c
    320c:	85 e0       	ldi	r24, 0x05	; 5
    320e:	90 e0       	ldi	r25, 0x00	; 0
    3210:	0e 94 68 13 	call	0x26d0	; 0x26d0 <_Z5delayj>
    3214:	6e 81       	ldd	r22, Y+6	; 0x06
    3216:	7f 81       	ldd	r23, Y+7	; 0x07
    3218:	96 01       	movw	r18, r12
    321a:	4c 85       	ldd	r20, Y+12	; 0x0c
    321c:	8c 81       	ldd	r24, Y+4	; 0x04
    321e:	9d 81       	ldd	r25, Y+5	; 0x05
    3220:	0e 94 88 11 	call	0x2310	; 0x2310 <_ZN3BTD20l2cap_config_requestEjhPh>
    3224:	88 e0       	ldi	r24, 0x08	; 8
    3226:	8a 8b       	std	Y+18, r24	; 0x12
    3228:	4f c0       	rjmp	.+158    	; 0x32c8 <_ZN5PS3BT10L2CAP_taskEv+0x1da>
    322a:	88 85       	ldd	r24, Y+8	; 0x08
    322c:	85 ff       	sbrs	r24, 5
    322e:	4c c0       	rjmp	.+152    	; 0x32c8 <_ZN5PS3BT10L2CAP_taskEv+0x1da>
    3230:	60 e8       	ldi	r22, 0x80	; 128
    3232:	89 e3       	ldi	r24, 0x39	; 57
    3234:	9a e0       	ldi	r25, 0x0A	; 10
    3236:	0e 94 27 13 	call	0x264e	; 0x264e <_Z6NotifyPKch>
    323a:	88 89       	ldd	r24, Y+16	; 0x10
    323c:	8d 34       	cpi	r24, 0x4D	; 77
    323e:	51 f4       	brne	.+20     	; 0x3254 <_ZN5PS3BT10L2CAP_taskEv+0x166>
    3240:	80 e4       	ldi	r24, 0x40	; 64
    3242:	fe 01       	movw	r30, r28
    3244:	bb 96       	adiw	r30, 0x2b	; 43
    3246:	df 01       	movw	r26, r30
    3248:	1d 92       	st	X+, r1
    324a:	8a 95       	dec	r24
    324c:	e9 f7       	brne	.-6      	; 0x3248 <_ZN5PS3BT10L2CAP_taskEv+0x15a>
    324e:	81 e1       	ldi	r24, 0x11	; 17
    3250:	8a 8b       	std	Y+18, r24	; 0x12
    3252:	02 c0       	rjmp	.+4      	; 0x3258 <_ZN5PS3BT10L2CAP_taskEv+0x16a>
    3254:	82 e1       	ldi	r24, 0x12	; 18
    3256:	8a 8b       	std	Y+18, r24	; 0x12
    3258:	0e 94 57 13 	call	0x26ae	; 0x26ae <_Z6millisv>
    325c:	2b a3       	std	Y+35, r18	; 0x23
    325e:	3c a3       	std	Y+36, r19	; 0x24
    3260:	4d a3       	std	Y+37, r20	; 0x25
    3262:	5e a3       	std	Y+38, r21	; 0x26
    3264:	31 c0       	rjmp	.+98     	; 0x32c8 <_ZN5PS3BT10L2CAP_taskEv+0x1da>
    3266:	88 85       	ldd	r24, Y+8	; 0x08
    3268:	87 ff       	sbrs	r24, 7
    326a:	2e c0       	rjmp	.+92     	; 0x32c8 <_ZN5PS3BT10L2CAP_taskEv+0x1da>
    326c:	60 e8       	ldi	r22, 0x80	; 128
    326e:	88 e1       	ldi	r24, 0x18	; 24
    3270:	9a e0       	ldi	r25, 0x0A	; 10
    3272:	0e 94 27 13 	call	0x264e	; 0x264e <_Z6NotifyPKch>
    3276:	4c 85       	ldd	r20, Y+12	; 0x0c
    3278:	4f 5f       	subi	r20, 0xFF	; 255
    327a:	4c 87       	std	Y+12, r20	; 0x0c
    327c:	8e 01       	movw	r16, r28
    327e:	0f 52       	subi	r16, 0x2F	; 47
    3280:	1f 4f       	sbci	r17, 0xFF	; 255
    3282:	9e 01       	movw	r18, r28
    3284:	21 53       	subi	r18, 0x31	; 49
    3286:	3f 4f       	sbci	r19, 0xFF	; 255
    3288:	6e 81       	ldd	r22, Y+6	; 0x06
    328a:	7f 81       	ldd	r23, Y+7	; 0x07
    328c:	8c 81       	ldd	r24, Y+4	; 0x04
    328e:	9d 81       	ldd	r25, Y+5	; 0x05
    3290:	0e 94 f6 11 	call	0x23ec	; 0x23ec <_ZN3BTD27l2cap_disconnection_requestEjhPhS0_>
    3294:	85 e0       	ldi	r24, 0x05	; 5
    3296:	8a 8b       	std	Y+18, r24	; 0x12
    3298:	17 c0       	rjmp	.+46     	; 0x32c8 <_ZN5PS3BT10L2CAP_taskEv+0x1da>
    329a:	88 85       	ldd	r24, Y+8	; 0x08
    329c:	83 ff       	sbrs	r24, 3
    329e:	14 c0       	rjmp	.+40     	; 0x32c8 <_ZN5PS3BT10L2CAP_taskEv+0x1da>
    32a0:	60 e8       	ldi	r22, 0x80	; 128
    32a2:	89 ef       	ldi	r24, 0xF9	; 249
    32a4:	99 e0       	ldi	r25, 0x09	; 9
    32a6:	0e 94 27 13 	call	0x264e	; 0x264e <_Z6NotifyPKch>
    32aa:	6e 81       	ldd	r22, Y+6	; 0x06
    32ac:	7f 81       	ldd	r23, Y+7	; 0x07
    32ae:	8c 81       	ldd	r24, Y+4	; 0x04
    32b0:	9d 81       	ldd	r25, Y+5	; 0x05
    32b2:	0e 94 77 09 	call	0x12ee	; 0x12ee <_ZN3BTD14hci_disconnectEj>
    32b6:	8f ef       	ldi	r24, 0xFF	; 255
    32b8:	9f ef       	ldi	r25, 0xFF	; 255
    32ba:	9f 83       	std	Y+7, r25	; 0x07
    32bc:	8e 83       	std	Y+6, r24	; 0x06
    32be:	18 86       	std	Y+8, r1	; 0x08
    32c0:	19 86       	std	Y+9, r1	; 0x09
    32c2:	1a 86       	std	Y+10, r1	; 0x0a
    32c4:	1b 86       	std	Y+11, r1	; 0x0b
    32c6:	1a 8a       	std	Y+18, r1	; 0x12
    32c8:	df 91       	pop	r29
    32ca:	cf 91       	pop	r28
    32cc:	1f 91       	pop	r17
    32ce:	0f 91       	pop	r16
    32d0:	ef 90       	pop	r14
    32d2:	df 90       	pop	r13
    32d4:	cf 90       	pop	r12
    32d6:	bf 90       	pop	r11
    32d8:	af 90       	pop	r10
    32da:	08 95       	ret

000032dc <_ZN5PS3BT7ACLDataEPh>:
    32dc:	ef 92       	push	r14
    32de:	ff 92       	push	r15
    32e0:	0f 93       	push	r16
    32e2:	1f 93       	push	r17
    32e4:	cf 93       	push	r28
    32e6:	df 93       	push	r29
    32e8:	dc 01       	movw	r26, r24
    32ea:	14 96       	adiw	r26, 0x04	; 4
    32ec:	ed 91       	ld	r30, X+
    32ee:	fc 91       	ld	r31, X
    32f0:	15 97       	sbiw	r26, 0x05	; 5
    32f2:	81 81       	ldd	r24, Z+1	; 0x01
    32f4:	81 11       	cpse	r24, r1
    32f6:	3f c0       	rjmp	.+126    	; 0x3376 <_ZN5PS3BT7ACLDataEPh+0x9a>
    32f8:	1d 96       	adiw	r26, 0x0d	; 13
    32fa:	8c 91       	ld	r24, X
    32fc:	1d 97       	sbiw	r26, 0x0d	; 13
    32fe:	81 11       	cpse	r24, r1
    3300:	3a c0       	rjmp	.+116    	; 0x3376 <_ZN5PS3BT7ACLDataEPh+0x9a>
    3302:	1e 96       	adiw	r26, 0x0e	; 14
    3304:	8c 91       	ld	r24, X
    3306:	1e 97       	sbiw	r26, 0x0e	; 14
    3308:	81 11       	cpse	r24, r1
    330a:	35 c0       	rjmp	.+106    	; 0x3376 <_ZN5PS3BT7ACLDataEPh+0x9a>
    330c:	1f 96       	adiw	r26, 0x0f	; 15
    330e:	8c 91       	ld	r24, X
    3310:	1f 97       	sbiw	r26, 0x0f	; 15
    3312:	81 11       	cpse	r24, r1
    3314:	30 c0       	rjmp	.+96     	; 0x3376 <_ZN5PS3BT7ACLDataEPh+0x9a>
    3316:	51 96       	adiw	r26, 0x11	; 17
    3318:	8c 91       	ld	r24, X
    331a:	51 97       	sbiw	r26, 0x11	; 17
    331c:	81 11       	cpse	r24, r1
    331e:	2b c0       	rjmp	.+86     	; 0x3376 <_ZN5PS3BT7ACLDataEPh+0x9a>
    3320:	85 a9       	ldd	r24, Z+53	; 0x35
    3322:	81 11       	cpse	r24, r1
    3324:	28 c0       	rjmp	.+80     	; 0x3376 <_ZN5PS3BT7ACLDataEPh+0x9a>
    3326:	86 a9       	ldd	r24, Z+54	; 0x36
    3328:	81 11       	cpse	r24, r1
    332a:	25 c0       	rjmp	.+74     	; 0x3376 <_ZN5PS3BT7ACLDataEPh+0x9a>
    332c:	87 a9       	ldd	r24, Z+55	; 0x37
    332e:	81 11       	cpse	r24, r1
    3330:	22 c0       	rjmp	.+68     	; 0x3376 <_ZN5PS3BT7ACLDataEPh+0x9a>
    3332:	eb 01       	movw	r28, r22
    3334:	88 85       	ldd	r24, Y+8	; 0x08
    3336:	82 30       	cpi	r24, 0x02	; 2
    3338:	f1 f4       	brne	.+60     	; 0x3376 <_ZN5PS3BT7ACLDataEPh+0x9a>
    333a:	8d 85       	ldd	r24, Y+13	; 0x0d
    333c:	90 e0       	ldi	r25, 0x00	; 0
    333e:	98 2f       	mov	r25, r24
    3340:	88 27       	eor	r24, r24
    3342:	2c 85       	ldd	r18, Y+12	; 0x0c
    3344:	82 2b       	or	r24, r18
    3346:	41 97       	sbiw	r24, 0x11	; 17
    3348:	b1 f4       	brne	.+44     	; 0x3376 <_ZN5PS3BT7ACLDataEPh+0x9a>
    334a:	81 e0       	ldi	r24, 0x01	; 1
    334c:	81 83       	std	Z+1, r24	; 0x01
    334e:	51 96       	adiw	r26, 0x11	; 17
    3350:	8c 93       	st	X, r24
    3352:	51 97       	sbiw	r26, 0x11	; 17
    3354:	14 96       	adiw	r26, 0x04	; 4
    3356:	ed 91       	ld	r30, X+
    3358:	fc 91       	ld	r31, X
    335a:	15 97       	sbiw	r26, 0x05	; 5
    335c:	86 85       	ldd	r24, Z+14	; 0x0e
    335e:	97 85       	ldd	r25, Z+15	; 0x0f
    3360:	17 96       	adiw	r26, 0x07	; 7
    3362:	9c 93       	st	X, r25
    3364:	8e 93       	st	-X, r24
    3366:	16 97       	sbiw	r26, 0x06	; 6
    3368:	52 96       	adiw	r26, 0x12	; 18
    336a:	1c 92       	st	X, r1
    336c:	52 97       	sbiw	r26, 0x12	; 18
    336e:	86 89       	ldd	r24, Z+22	; 0x16
    3370:	50 96       	adiw	r26, 0x10	; 16
    3372:	8c 93       	st	X, r24
    3374:	50 97       	sbiw	r26, 0x10	; 16
    3376:	16 96       	adiw	r26, 0x06	; 6
    3378:	cd 91       	ld	r28, X+
    337a:	dc 91       	ld	r29, X
    337c:	17 97       	sbiw	r26, 0x07	; 7
    337e:	fb 01       	movw	r30, r22
    3380:	80 81       	ld	r24, Z
    3382:	90 e0       	ldi	r25, 0x00	; 0
    3384:	9e 01       	movw	r18, r28
    3386:	33 27       	eor	r19, r19
    3388:	82 17       	cp	r24, r18
    338a:	93 07       	cpc	r25, r19
    338c:	09 f0       	breq	.+2      	; 0x3390 <_ZN5PS3BT7ACLDataEPh+0xb4>
    338e:	3b c2       	rjmp	.+1142   	; 0x3806 <_ZN5PS3BT7ACLDataEPh+0x52a>
    3390:	21 81       	ldd	r18, Z+1	; 0x01
    3392:	30 e0       	ldi	r19, 0x00	; 0
    3394:	8d 2f       	mov	r24, r29
    3396:	99 27       	eor	r25, r25
    3398:	80 62       	ori	r24, 0x20	; 32
    339a:	28 17       	cp	r18, r24
    339c:	39 07       	cpc	r19, r25
    339e:	09 f0       	breq	.+2      	; 0x33a2 <_ZN5PS3BT7ACLDataEPh+0xc6>
    33a0:	32 c2       	rjmp	.+1124   	; 0x3806 <_ZN5PS3BT7ACLDataEPh+0x52a>
    33a2:	1b c2       	rjmp	.+1078   	; 0x37da <_ZN5PS3BT7ACLDataEPh+0x4fe>
    33a4:	d7 01       	movw	r26, r14
    33a6:	d3 96       	adiw	r26, 0x33	; 51
    33a8:	8c 91       	ld	r24, X
    33aa:	81 30       	cpi	r24, 0x01	; 1
    33ac:	09 f4       	brne	.+2      	; 0x33b0 <_ZN5PS3BT7ACLDataEPh+0xd4>
    33ae:	11 c2       	rjmp	.+1058   	; 0x37d2 <_ZN5PS3BT7ACLDataEPh+0x4f6>
    33b0:	82 30       	cpi	r24, 0x02	; 2
    33b2:	09 f0       	breq	.+2      	; 0x33b6 <_ZN5PS3BT7ACLDataEPh+0xda>
    33b4:	65 c0       	rjmp	.+202    	; 0x3480 <_ZN5PS3BT7ACLDataEPh+0x1a4>
    33b6:	60 e8       	ldi	r22, 0x80	; 128
    33b8:	83 e1       	ldi	r24, 0x13	; 19
    33ba:	9c e0       	ldi	r25, 0x0C	; 12
    33bc:	0e 94 27 13 	call	0x264e	; 0x264e <_Z6NotifyPKch>
    33c0:	60 e8       	ldi	r22, 0x80	; 128
    33c2:	e7 01       	movw	r28, r14
    33c4:	88 ad       	ldd	r24, Y+56	; 0x38
    33c6:	0e 94 3a 13 	call	0x2674	; 0x2674 <_Z10D_PrintHexhh>
    33ca:	60 e8       	ldi	r22, 0x80	; 128
    33cc:	81 e1       	ldi	r24, 0x11	; 17
    33ce:	9c e0       	ldi	r25, 0x0C	; 12
    33d0:	0e 94 27 13 	call	0x264e	; 0x264e <_Z6NotifyPKch>
    33d4:	60 e8       	ldi	r22, 0x80	; 128
    33d6:	8f a9       	ldd	r24, Y+55	; 0x37
    33d8:	0e 94 3a 13 	call	0x2674	; 0x2674 <_Z10D_PrintHexhh>
    33dc:	60 e8       	ldi	r22, 0x80	; 128
    33de:	89 e0       	ldi	r24, 0x09	; 9
    33e0:	9c e0       	ldi	r25, 0x0C	; 12
    33e2:	0e 94 27 13 	call	0x264e	; 0x264e <_Z6NotifyPKch>
    33e6:	60 e8       	ldi	r22, 0x80	; 128
    33e8:	8a ad       	ldd	r24, Y+58	; 0x3a
    33ea:	0e 94 3a 13 	call	0x2674	; 0x2674 <_Z10D_PrintHexhh>
    33ee:	60 e8       	ldi	r22, 0x80	; 128
    33f0:	87 e0       	ldi	r24, 0x07	; 7
    33f2:	9c e0       	ldi	r25, 0x0C	; 12
    33f4:	0e 94 27 13 	call	0x264e	; 0x264e <_Z6NotifyPKch>
    33f8:	60 e8       	ldi	r22, 0x80	; 128
    33fa:	89 ad       	ldd	r24, Y+57	; 0x39
    33fc:	0e 94 3a 13 	call	0x2674	; 0x2674 <_Z10D_PrintHexhh>
    3400:	60 e8       	ldi	r22, 0x80	; 128
    3402:	89 ef       	ldi	r24, 0xF9	; 249
    3404:	9b e0       	ldi	r25, 0x0B	; 11
    3406:	0e 94 27 13 	call	0x264e	; 0x264e <_Z6NotifyPKch>
    340a:	60 e8       	ldi	r22, 0x80	; 128
    340c:	8c a9       	ldd	r24, Y+52	; 0x34
    340e:	0e 94 3a 13 	call	0x2674	; 0x2674 <_Z10D_PrintHexhh>
    3412:	88 ad       	ldd	r24, Y+56	; 0x38
    3414:	90 e0       	ldi	r25, 0x00	; 0
    3416:	98 2f       	mov	r25, r24
    3418:	88 27       	eor	r24, r24
    341a:	2f a9       	ldd	r18, Y+55	; 0x37
    341c:	82 2b       	or	r24, r18
    341e:	81 31       	cpi	r24, 0x11	; 17
    3420:	91 05       	cpc	r25, r1
    3422:	b1 f4       	brne	.+44     	; 0x3450 <_ZN5PS3BT7ACLDataEPh+0x174>
    3424:	8c a9       	ldd	r24, Y+52	; 0x34
    3426:	8c 87       	std	Y+12, r24	; 0x0c
    3428:	89 ad       	ldd	r24, Y+57	; 0x39
    342a:	f7 01       	movw	r30, r14
    342c:	e1 53       	subi	r30, 0x31	; 49
    342e:	ff 4f       	sbci	r31, 0xFF	; 255
    3430:	80 83       	st	Z, r24
    3432:	f7 01       	movw	r30, r14
    3434:	8a ad       	ldd	r24, Y+58	; 0x3a
    3436:	e0 53       	subi	r30, 0x30	; 48
    3438:	ff 4f       	sbci	r31, 0xFF	; 255
    343a:	80 83       	st	Z, r24
    343c:	88 85       	ldd	r24, Y+8	; 0x08
    343e:	99 85       	ldd	r25, Y+9	; 0x09
    3440:	aa 85       	ldd	r26, Y+10	; 0x0a
    3442:	bb 85       	ldd	r27, Y+11	; 0x0b
    3444:	81 60       	ori	r24, 0x01	; 1
    3446:	88 87       	std	Y+8, r24	; 0x08
    3448:	99 87       	std	Y+9, r25	; 0x09
    344a:	aa 87       	std	Y+10, r26	; 0x0a
    344c:	bb 87       	std	Y+11, r27	; 0x0b
    344e:	c1 c1       	rjmp	.+898    	; 0x37d2 <_ZN5PS3BT7ACLDataEPh+0x4f6>
    3450:	43 97       	sbiw	r24, 0x13	; 19
    3452:	09 f0       	breq	.+2      	; 0x3456 <_ZN5PS3BT7ACLDataEPh+0x17a>
    3454:	be c1       	rjmp	.+892    	; 0x37d2 <_ZN5PS3BT7ACLDataEPh+0x4f6>
    3456:	8c a9       	ldd	r24, Y+52	; 0x34
    3458:	8c 87       	std	Y+12, r24	; 0x0c
    345a:	89 ad       	ldd	r24, Y+57	; 0x39
    345c:	f7 01       	movw	r30, r14
    345e:	ed 52       	subi	r30, 0x2D	; 45
    3460:	ff 4f       	sbci	r31, 0xFF	; 255
    3462:	80 83       	st	Z, r24
    3464:	e7 01       	movw	r28, r14
    3466:	8a ad       	ldd	r24, Y+58	; 0x3a
    3468:	31 96       	adiw	r30, 0x01	; 1
    346a:	80 83       	st	Z, r24
    346c:	88 85       	ldd	r24, Y+8	; 0x08
    346e:	99 85       	ldd	r25, Y+9	; 0x09
    3470:	aa 85       	ldd	r26, Y+10	; 0x0a
    3472:	bb 85       	ldd	r27, Y+11	; 0x0b
    3474:	80 61       	ori	r24, 0x10	; 16
    3476:	88 87       	std	Y+8, r24	; 0x08
    3478:	99 87       	std	Y+9, r25	; 0x09
    347a:	aa 87       	std	Y+10, r26	; 0x0a
    347c:	bb 87       	std	Y+11, r27	; 0x0b
    347e:	a9 c1       	rjmp	.+850    	; 0x37d2 <_ZN5PS3BT7ACLDataEPh+0x4f6>
    3480:	85 30       	cpi	r24, 0x05	; 5
    3482:	09 f0       	breq	.+2      	; 0x3486 <_ZN5PS3BT7ACLDataEPh+0x1aa>
    3484:	44 c0       	rjmp	.+136    	; 0x350e <_ZN5PS3BT7ACLDataEPh+0x232>
    3486:	f7 01       	movw	r30, r14
    3488:	84 ad       	ldd	r24, Z+60	; 0x3c
    348a:	90 e0       	ldi	r25, 0x00	; 0
    348c:	98 2f       	mov	r25, r24
    348e:	88 27       	eor	r24, r24
    3490:	23 ad       	ldd	r18, Z+59	; 0x3b
    3492:	82 2b       	or	r24, r18
    3494:	89 2b       	or	r24, r25
    3496:	09 f0       	breq	.+2      	; 0x349a <_ZN5PS3BT7ACLDataEPh+0x1be>
    3498:	9c c1       	rjmp	.+824    	; 0x37d2 <_ZN5PS3BT7ACLDataEPh+0x4f6>
    349a:	87 a9       	ldd	r24, Z+55	; 0x37
    349c:	ef 52       	subi	r30, 0x2F	; 47
    349e:	ff 4f       	sbci	r31, 0xFF	; 255
    34a0:	90 81       	ld	r25, Z
    34a2:	89 13       	cpse	r24, r25
    34a4:	17 c0       	rjmp	.+46     	; 0x34d4 <_ZN5PS3BT7ACLDataEPh+0x1f8>
    34a6:	d7 01       	movw	r26, r14
    34a8:	d8 96       	adiw	r26, 0x38	; 56
    34aa:	2c 91       	ld	r18, X
    34ac:	31 96       	adiw	r30, 0x01	; 1
    34ae:	90 81       	ld	r25, Z
    34b0:	29 13       	cpse	r18, r25
    34b2:	10 c0       	rjmp	.+32     	; 0x34d4 <_ZN5PS3BT7ACLDataEPh+0x1f8>
    34b4:	60 e8       	ldi	r22, 0x80	; 128
    34b6:	84 ed       	ldi	r24, 0xD4	; 212
    34b8:	9b e0       	ldi	r25, 0x0B	; 11
    34ba:	0e 94 27 13 	call	0x264e	; 0x264e <_Z6NotifyPKch>
    34be:	e7 01       	movw	r28, r14
    34c0:	88 85       	ldd	r24, Y+8	; 0x08
    34c2:	99 85       	ldd	r25, Y+9	; 0x09
    34c4:	aa 85       	ldd	r26, Y+10	; 0x0a
    34c6:	bb 85       	ldd	r27, Y+11	; 0x0b
    34c8:	82 60       	ori	r24, 0x02	; 2
    34ca:	88 87       	std	Y+8, r24	; 0x08
    34cc:	99 87       	std	Y+9, r25	; 0x09
    34ce:	aa 87       	std	Y+10, r26	; 0x0a
    34d0:	bb 87       	std	Y+11, r27	; 0x0b
    34d2:	7f c1       	rjmp	.+766    	; 0x37d2 <_ZN5PS3BT7ACLDataEPh+0x4f6>
    34d4:	f7 01       	movw	r30, r14
    34d6:	eb 52       	subi	r30, 0x2B	; 43
    34d8:	ff 4f       	sbci	r31, 0xFF	; 255
    34da:	90 81       	ld	r25, Z
    34dc:	89 13       	cpse	r24, r25
    34de:	79 c1       	rjmp	.+754    	; 0x37d2 <_ZN5PS3BT7ACLDataEPh+0x4f6>
    34e0:	d7 01       	movw	r26, r14
    34e2:	d8 96       	adiw	r26, 0x38	; 56
    34e4:	9c 91       	ld	r25, X
    34e6:	31 96       	adiw	r30, 0x01	; 1
    34e8:	80 81       	ld	r24, Z
    34ea:	98 13       	cpse	r25, r24
    34ec:	72 c1       	rjmp	.+740    	; 0x37d2 <_ZN5PS3BT7ACLDataEPh+0x4f6>
    34ee:	60 e8       	ldi	r22, 0x80	; 128
    34f0:	8d ea       	ldi	r24, 0xAD	; 173
    34f2:	9b e0       	ldi	r25, 0x0B	; 11
    34f4:	0e 94 27 13 	call	0x264e	; 0x264e <_Z6NotifyPKch>
    34f8:	e7 01       	movw	r28, r14
    34fa:	88 85       	ldd	r24, Y+8	; 0x08
    34fc:	99 85       	ldd	r25, Y+9	; 0x09
    34fe:	aa 85       	ldd	r26, Y+10	; 0x0a
    3500:	bb 85       	ldd	r27, Y+11	; 0x0b
    3502:	80 62       	ori	r24, 0x20	; 32
    3504:	88 87       	std	Y+8, r24	; 0x08
    3506:	99 87       	std	Y+9, r25	; 0x09
    3508:	aa 87       	std	Y+10, r26	; 0x0a
    350a:	bb 87       	std	Y+11, r27	; 0x0b
    350c:	62 c1       	rjmp	.+708    	; 0x37d2 <_ZN5PS3BT7ACLDataEPh+0x4f6>
    350e:	84 30       	cpi	r24, 0x04	; 4
    3510:	09 f0       	breq	.+2      	; 0x3514 <_ZN5PS3BT7ACLDataEPh+0x238>
    3512:	3d c0       	rjmp	.+122    	; 0x358e <_ZN5PS3BT7ACLDataEPh+0x2b2>
    3514:	d7 01       	movw	r26, r14
    3516:	d7 96       	adiw	r26, 0x37	; 55
    3518:	8c 91       	ld	r24, X
    351a:	f7 01       	movw	r30, r14
    351c:	ef 52       	subi	r30, 0x2F	; 47
    351e:	ff 4f       	sbci	r31, 0xFF	; 255
    3520:	90 81       	ld	r25, Z
    3522:	89 13       	cpse	r24, r25
    3524:	16 c0       	rjmp	.+44     	; 0x3552 <_ZN5PS3BT7ACLDataEPh+0x276>
    3526:	e7 01       	movw	r28, r14
    3528:	28 ad       	ldd	r18, Y+56	; 0x38
    352a:	31 96       	adiw	r30, 0x01	; 1
    352c:	90 81       	ld	r25, Z
    352e:	29 13       	cpse	r18, r25
    3530:	10 c0       	rjmp	.+32     	; 0x3552 <_ZN5PS3BT7ACLDataEPh+0x276>
    3532:	60 e8       	ldi	r22, 0x80	; 128
    3534:	89 e8       	ldi	r24, 0x89	; 137
    3536:	9b e0       	ldi	r25, 0x0B	; 11
    3538:	0e 94 27 13 	call	0x264e	; 0x264e <_Z6NotifyPKch>
    353c:	6e 81       	ldd	r22, Y+6	; 0x06
    353e:	7f 81       	ldd	r23, Y+7	; 0x07
    3540:	97 01       	movw	r18, r14
    3542:	21 53       	subi	r18, 0x31	; 49
    3544:	3f 4f       	sbci	r19, 0xFF	; 255
    3546:	4c a9       	ldd	r20, Y+52	; 0x34
    3548:	8c 81       	ldd	r24, Y+4	; 0x04
    354a:	9d 81       	ldd	r25, Y+5	; 0x05
    354c:	0e 94 bd 11 	call	0x237a	; 0x237a <_ZN3BTD21l2cap_config_responseEjhPh>
    3550:	40 c1       	rjmp	.+640    	; 0x37d2 <_ZN5PS3BT7ACLDataEPh+0x4f6>
    3552:	f7 01       	movw	r30, r14
    3554:	eb 52       	subi	r30, 0x2B	; 43
    3556:	ff 4f       	sbci	r31, 0xFF	; 255
    3558:	90 81       	ld	r25, Z
    355a:	89 13       	cpse	r24, r25
    355c:	3a c1       	rjmp	.+628    	; 0x37d2 <_ZN5PS3BT7ACLDataEPh+0x4f6>
    355e:	d7 01       	movw	r26, r14
    3560:	d8 96       	adiw	r26, 0x38	; 56
    3562:	9c 91       	ld	r25, X
    3564:	31 96       	adiw	r30, 0x01	; 1
    3566:	80 81       	ld	r24, Z
    3568:	98 13       	cpse	r25, r24
    356a:	33 c1       	rjmp	.+614    	; 0x37d2 <_ZN5PS3BT7ACLDataEPh+0x4f6>
    356c:	60 e8       	ldi	r22, 0x80	; 128
    356e:	83 e6       	ldi	r24, 0x63	; 99
    3570:	9b e0       	ldi	r25, 0x0B	; 11
    3572:	0e 94 27 13 	call	0x264e	; 0x264e <_Z6NotifyPKch>
    3576:	e7 01       	movw	r28, r14
    3578:	6e 81       	ldd	r22, Y+6	; 0x06
    357a:	7f 81       	ldd	r23, Y+7	; 0x07
    357c:	97 01       	movw	r18, r14
    357e:	2d 52       	subi	r18, 0x2D	; 45
    3580:	3f 4f       	sbci	r19, 0xFF	; 255
    3582:	4c a9       	ldd	r20, Y+52	; 0x34
    3584:	8c 81       	ldd	r24, Y+4	; 0x04
    3586:	9d 81       	ldd	r25, Y+5	; 0x05
    3588:	0e 94 bd 11 	call	0x237a	; 0x237a <_ZN3BTD21l2cap_config_responseEjhPh>
    358c:	22 c1       	rjmp	.+580    	; 0x37d2 <_ZN5PS3BT7ACLDataEPh+0x4f6>
    358e:	86 30       	cpi	r24, 0x06	; 6
    3590:	09 f0       	breq	.+2      	; 0x3594 <_ZN5PS3BT7ACLDataEPh+0x2b8>
    3592:	4f c0       	rjmp	.+158    	; 0x3632 <_ZN5PS3BT7ACLDataEPh+0x356>
    3594:	f7 01       	movw	r30, r14
    3596:	87 a9       	ldd	r24, Z+55	; 0x37
    3598:	ef 52       	subi	r30, 0x2F	; 47
    359a:	ff 4f       	sbci	r31, 0xFF	; 255
    359c:	90 81       	ld	r25, Z
    359e:	89 13       	cpse	r24, r25
    35a0:	1e c0       	rjmp	.+60     	; 0x35de <_ZN5PS3BT7ACLDataEPh+0x302>
    35a2:	d7 01       	movw	r26, r14
    35a4:	d8 96       	adiw	r26, 0x38	; 56
    35a6:	2c 91       	ld	r18, X
    35a8:	31 96       	adiw	r30, 0x01	; 1
    35aa:	90 81       	ld	r25, Z
    35ac:	29 13       	cpse	r18, r25
    35ae:	17 c0       	rjmp	.+46     	; 0x35de <_ZN5PS3BT7ACLDataEPh+0x302>
    35b0:	f7 01       	movw	r30, r14
    35b2:	44 a9       	ldd	r20, Z+52	; 0x34
    35b4:	44 87       	std	Z+12, r20	; 0x0c
    35b6:	87 01       	movw	r16, r14
    35b8:	01 53       	subi	r16, 0x31	; 49
    35ba:	1f 4f       	sbci	r17, 0xFF	; 255
    35bc:	97 01       	movw	r18, r14
    35be:	2f 52       	subi	r18, 0x2F	; 47
    35c0:	3f 4f       	sbci	r19, 0xFF	; 255
    35c2:	be 01       	movw	r22, r28
    35c4:	84 81       	ldd	r24, Z+4	; 0x04
    35c6:	95 81       	ldd	r25, Z+5	; 0x05
    35c8:	0e 94 2b 12 	call	0x2456	; 0x2456 <_ZN3BTD28l2cap_disconnection_responseEjhPhS0_>
    35cc:	d7 01       	movw	r26, r14
    35ce:	ed 91       	ld	r30, X+
    35d0:	fc 91       	ld	r31, X
    35d2:	04 80       	ldd	r0, Z+4	; 0x04
    35d4:	f5 81       	ldd	r31, Z+5	; 0x05
    35d6:	e0 2d       	mov	r30, r0
    35d8:	c7 01       	movw	r24, r14
    35da:	09 95       	icall
    35dc:	fa c0       	rjmp	.+500    	; 0x37d2 <_ZN5PS3BT7ACLDataEPh+0x4f6>
    35de:	f7 01       	movw	r30, r14
    35e0:	eb 52       	subi	r30, 0x2B	; 43
    35e2:	ff 4f       	sbci	r31, 0xFF	; 255
    35e4:	90 81       	ld	r25, Z
    35e6:	89 13       	cpse	r24, r25
    35e8:	f4 c0       	rjmp	.+488    	; 0x37d2 <_ZN5PS3BT7ACLDataEPh+0x4f6>
    35ea:	f7 01       	movw	r30, r14
    35ec:	90 ad       	ldd	r25, Z+56	; 0x38
    35ee:	ea 52       	subi	r30, 0x2A	; 42
    35f0:	ff 4f       	sbci	r31, 0xFF	; 255
    35f2:	80 81       	ld	r24, Z
    35f4:	98 13       	cpse	r25, r24
    35f6:	ed c0       	rjmp	.+474    	; 0x37d2 <_ZN5PS3BT7ACLDataEPh+0x4f6>
    35f8:	d7 01       	movw	r26, r14
    35fa:	d4 96       	adiw	r26, 0x34	; 52
    35fc:	4c 91       	ld	r20, X
    35fe:	d4 97       	sbiw	r26, 0x34	; 52
    3600:	1c 96       	adiw	r26, 0x0c	; 12
    3602:	4c 93       	st	X, r20
    3604:	1c 97       	sbiw	r26, 0x0c	; 12
    3606:	87 01       	movw	r16, r14
    3608:	0d 52       	subi	r16, 0x2D	; 45
    360a:	1f 4f       	sbci	r17, 0xFF	; 255
    360c:	97 01       	movw	r18, r14
    360e:	2b 52       	subi	r18, 0x2B	; 43
    3610:	3f 4f       	sbci	r19, 0xFF	; 255
    3612:	be 01       	movw	r22, r28
    3614:	14 96       	adiw	r26, 0x04	; 4
    3616:	8d 91       	ld	r24, X+
    3618:	9c 91       	ld	r25, X
    361a:	15 97       	sbiw	r26, 0x05	; 5
    361c:	0e 94 2b 12 	call	0x2456	; 0x2456 <_ZN3BTD28l2cap_disconnection_responseEjhPhS0_>
    3620:	e7 01       	movw	r28, r14
    3622:	e8 81       	ld	r30, Y
    3624:	f9 81       	ldd	r31, Y+1	; 0x01
    3626:	04 80       	ldd	r0, Z+4	; 0x04
    3628:	f5 81       	ldd	r31, Z+5	; 0x05
    362a:	e0 2d       	mov	r30, r0
    362c:	c7 01       	movw	r24, r14
    362e:	09 95       	icall
    3630:	d0 c0       	rjmp	.+416    	; 0x37d2 <_ZN5PS3BT7ACLDataEPh+0x4f6>
    3632:	87 30       	cpi	r24, 0x07	; 7
    3634:	09 f0       	breq	.+2      	; 0x3638 <_ZN5PS3BT7ACLDataEPh+0x35c>
    3636:	3f c0       	rjmp	.+126    	; 0x36b6 <_ZN5PS3BT7ACLDataEPh+0x3da>
    3638:	f7 01       	movw	r30, r14
    363a:	87 a9       	ldd	r24, Z+55	; 0x37
    363c:	e1 53       	subi	r30, 0x31	; 49
    363e:	ff 4f       	sbci	r31, 0xFF	; 255
    3640:	90 81       	ld	r25, Z
    3642:	89 13       	cpse	r24, r25
    3644:	19 c0       	rjmp	.+50     	; 0x3678 <_ZN5PS3BT7ACLDataEPh+0x39c>
    3646:	d7 01       	movw	r26, r14
    3648:	d8 96       	adiw	r26, 0x38	; 56
    364a:	2c 91       	ld	r18, X
    364c:	31 96       	adiw	r30, 0x01	; 1
    364e:	90 81       	ld	r25, Z
    3650:	29 13       	cpse	r18, r25
    3652:	12 c0       	rjmp	.+36     	; 0x3678 <_ZN5PS3BT7ACLDataEPh+0x39c>
    3654:	60 e8       	ldi	r22, 0x80	; 128
    3656:	8c e3       	ldi	r24, 0x3C	; 60
    3658:	9b e0       	ldi	r25, 0x0B	; 11
    365a:	0e 94 27 13 	call	0x264e	; 0x264e <_Z6NotifyPKch>
    365e:	e7 01       	movw	r28, r14
    3660:	8c a9       	ldd	r24, Y+52	; 0x34
    3662:	8c 87       	std	Y+12, r24	; 0x0c
    3664:	88 85       	ldd	r24, Y+8	; 0x08
    3666:	99 85       	ldd	r25, Y+9	; 0x09
    3668:	aa 85       	ldd	r26, Y+10	; 0x0a
    366a:	bb 85       	ldd	r27, Y+11	; 0x0b
    366c:	88 60       	ori	r24, 0x08	; 8
    366e:	88 87       	std	Y+8, r24	; 0x08
    3670:	99 87       	std	Y+9, r25	; 0x09
    3672:	aa 87       	std	Y+10, r26	; 0x0a
    3674:	bb 87       	std	Y+11, r27	; 0x0b
    3676:	ad c0       	rjmp	.+346    	; 0x37d2 <_ZN5PS3BT7ACLDataEPh+0x4f6>
    3678:	f7 01       	movw	r30, r14
    367a:	ed 52       	subi	r30, 0x2D	; 45
    367c:	ff 4f       	sbci	r31, 0xFF	; 255
    367e:	90 81       	ld	r25, Z
    3680:	89 13       	cpse	r24, r25
    3682:	a7 c0       	rjmp	.+334    	; 0x37d2 <_ZN5PS3BT7ACLDataEPh+0x4f6>
    3684:	d7 01       	movw	r26, r14
    3686:	d8 96       	adiw	r26, 0x38	; 56
    3688:	9c 91       	ld	r25, X
    368a:	31 96       	adiw	r30, 0x01	; 1
    368c:	80 81       	ld	r24, Z
    368e:	98 13       	cpse	r25, r24
    3690:	a0 c0       	rjmp	.+320    	; 0x37d2 <_ZN5PS3BT7ACLDataEPh+0x4f6>
    3692:	60 e8       	ldi	r22, 0x80	; 128
    3694:	83 e1       	ldi	r24, 0x13	; 19
    3696:	9b e0       	ldi	r25, 0x0B	; 11
    3698:	0e 94 27 13 	call	0x264e	; 0x264e <_Z6NotifyPKch>
    369c:	e7 01       	movw	r28, r14
    369e:	8c a9       	ldd	r24, Y+52	; 0x34
    36a0:	8c 87       	std	Y+12, r24	; 0x0c
    36a2:	88 85       	ldd	r24, Y+8	; 0x08
    36a4:	99 85       	ldd	r25, Y+9	; 0x09
    36a6:	aa 85       	ldd	r26, Y+10	; 0x0a
    36a8:	bb 85       	ldd	r27, Y+11	; 0x0b
    36aa:	80 68       	ori	r24, 0x80	; 128
    36ac:	88 87       	std	Y+8, r24	; 0x08
    36ae:	99 87       	std	Y+9, r25	; 0x09
    36b0:	aa 87       	std	Y+10, r26	; 0x0a
    36b2:	bb 87       	std	Y+11, r27	; 0x0b
    36b4:	8e c0       	rjmp	.+284    	; 0x37d2 <_ZN5PS3BT7ACLDataEPh+0x4f6>
    36b6:	60 e8       	ldi	r22, 0x80	; 128
    36b8:	8f ee       	ldi	r24, 0xEF	; 239
    36ba:	9a e0       	ldi	r25, 0x0A	; 10
    36bc:	0e 94 27 13 	call	0x264e	; 0x264e <_Z6NotifyPKch>
    36c0:	60 e8       	ldi	r22, 0x80	; 128
    36c2:	d7 01       	movw	r26, r14
    36c4:	d3 96       	adiw	r26, 0x33	; 51
    36c6:	8c 91       	ld	r24, X
    36c8:	0e 94 3a 13 	call	0x2674	; 0x2674 <_Z10D_PrintHexhh>
    36cc:	82 c0       	rjmp	.+260    	; 0x37d2 <_ZN5PS3BT7ACLDataEPh+0x4f6>
    36ce:	f7 01       	movw	r30, r14
    36d0:	eb 52       	subi	r30, 0x2B	; 43
    36d2:	ff 4f       	sbci	r31, 0xFF	; 255
    36d4:	80 81       	ld	r24, Z
    36d6:	98 13       	cpse	r25, r24
    36d8:	7c c0       	rjmp	.+248    	; 0x37d2 <_ZN5PS3BT7ACLDataEPh+0x4f6>
    36da:	31 96       	adiw	r30, 0x01	; 1
    36dc:	80 81       	ld	r24, Z
    36de:	48 13       	cpse	r20, r24
    36e0:	78 c0       	rjmp	.+240    	; 0x37d2 <_ZN5PS3BT7ACLDataEPh+0x4f6>
    36e2:	60 e8       	ldi	r22, 0x80	; 128
    36e4:	8d ed       	ldi	r24, 0xDD	; 221
    36e6:	9a e0       	ldi	r25, 0x0A	; 10
    36e8:	0e 94 27 13 	call	0x264e	; 0x264e <_Z6NotifyPKch>
    36ec:	e7 01       	movw	r28, r14
    36ee:	8d 85       	ldd	r24, Y+13	; 0x0d
    36f0:	81 11       	cpse	r24, r1
    36f2:	07 c0       	rjmp	.+14     	; 0x3702 <_ZN5PS3BT7ACLDataEPh+0x426>
    36f4:	8e 85       	ldd	r24, Y+14	; 0x0e
    36f6:	81 11       	cpse	r24, r1
    36f8:	04 c0       	rjmp	.+8      	; 0x3702 <_ZN5PS3BT7ACLDataEPh+0x426>
    36fa:	8f 85       	ldd	r24, Y+15	; 0x0f
    36fc:	88 23       	and	r24, r24
    36fe:	09 f4       	brne	.+2      	; 0x3702 <_ZN5PS3BT7ACLDataEPh+0x426>
    3700:	68 c0       	rjmp	.+208    	; 0x37d2 <_ZN5PS3BT7ACLDataEPh+0x4f6>
    3702:	f7 01       	movw	r30, r14
    3704:	83 a9       	ldd	r24, Z+51	; 0x33
    3706:	81 3a       	cpi	r24, 0xA1	; 161
    3708:	09 f0       	breq	.+2      	; 0x370c <_ZN5PS3BT7ACLDataEPh+0x430>
    370a:	63 c0       	rjmp	.+198    	; 0x37d2 <_ZN5PS3BT7ACLDataEPh+0x4f6>
    370c:	0e 94 57 13 	call	0x26ae	; 0x26ae <_Z6millisv>
    3710:	d7 01       	movw	r26, r14
    3712:	53 96       	adiw	r26, 0x13	; 19
    3714:	2c 93       	st	X, r18
    3716:	53 97       	sbiw	r26, 0x13	; 19
    3718:	54 96       	adiw	r26, 0x14	; 20
    371a:	3c 93       	st	X, r19
    371c:	54 97       	sbiw	r26, 0x14	; 20
    371e:	55 96       	adiw	r26, 0x15	; 21
    3720:	4c 93       	st	X, r20
    3722:	55 97       	sbiw	r26, 0x15	; 21
    3724:	56 96       	adiw	r26, 0x16	; 22
    3726:	5c 93       	st	X, r21
    3728:	56 97       	sbiw	r26, 0x16	; 22
    372a:	1d 96       	adiw	r26, 0x0d	; 13
    372c:	8c 91       	ld	r24, X
    372e:	1d 97       	sbiw	r26, 0x0d	; 13
    3730:	81 11       	cpse	r24, r1
    3732:	04 c0       	rjmp	.+8      	; 0x373c <_ZN5PS3BT7ACLDataEPh+0x460>
    3734:	1f 96       	adiw	r26, 0x0f	; 15
    3736:	8c 91       	ld	r24, X
    3738:	88 23       	and	r24, r24
    373a:	81 f0       	breq	.+32     	; 0x375c <_ZN5PS3BT7ACLDataEPh+0x480>
    373c:	e7 01       	movw	r28, r14
    373e:	8f a9       	ldd	r24, Y+55	; 0x37
    3740:	90 e0       	ldi	r25, 0x00	; 0
    3742:	98 2f       	mov	r25, r24
    3744:	88 27       	eor	r24, r24
    3746:	2e a9       	ldd	r18, Y+54	; 0x36
    3748:	82 2b       	or	r24, r18
    374a:	a0 e0       	ldi	r26, 0x00	; 0
    374c:	b0 e0       	ldi	r27, 0x00	; 0
    374e:	28 ad       	ldd	r18, Y+56	; 0x38
    3750:	a2 2b       	or	r26, r18
    3752:	8f 8b       	std	Y+23, r24	; 0x17
    3754:	98 8f       	std	Y+24, r25	; 0x18
    3756:	a9 8f       	std	Y+25, r26	; 0x19
    3758:	ba 8f       	std	Y+26, r27	; 0x1a
    375a:	18 c0       	rjmp	.+48     	; 0x378c <_ZN5PS3BT7ACLDataEPh+0x4b0>
    375c:	d7 01       	movw	r26, r14
    375e:	1e 96       	adiw	r26, 0x0e	; 14
    3760:	8c 91       	ld	r24, X
    3762:	1e 97       	sbiw	r26, 0x0e	; 14
    3764:	88 23       	and	r24, r24
    3766:	91 f0       	breq	.+36     	; 0x378c <_ZN5PS3BT7ACLDataEPh+0x4b0>
    3768:	d6 96       	adiw	r26, 0x36	; 54
    376a:	8c 91       	ld	r24, X
    376c:	d6 97       	sbiw	r26, 0x36	; 54
    376e:	90 e0       	ldi	r25, 0x00	; 0
    3770:	98 2f       	mov	r25, r24
    3772:	88 27       	eor	r24, r24
    3774:	d5 96       	adiw	r26, 0x35	; 53
    3776:	2c 91       	ld	r18, X
    3778:	82 2b       	or	r24, r18
    377a:	a0 e0       	ldi	r26, 0x00	; 0
    377c:	b0 e0       	ldi	r27, 0x00	; 0
    377e:	e7 01       	movw	r28, r14
    3780:	2f a9       	ldd	r18, Y+55	; 0x37
    3782:	a2 2b       	or	r26, r18
    3784:	8f 8b       	std	Y+23, r24	; 0x17
    3786:	98 8f       	std	Y+24, r25	; 0x18
    3788:	a9 8f       	std	Y+25, r26	; 0x19
    378a:	ba 8f       	std	Y+26, r27	; 0x1a
    378c:	d7 01       	movw	r26, r14
    378e:	57 96       	adiw	r26, 0x17	; 23
    3790:	4d 91       	ld	r20, X+
    3792:	5d 91       	ld	r21, X+
    3794:	6d 91       	ld	r22, X+
    3796:	7c 91       	ld	r23, X
    3798:	5a 97       	sbiw	r26, 0x1a	; 26
    379a:	5b 96       	adiw	r26, 0x1b	; 27
    379c:	8d 91       	ld	r24, X+
    379e:	9d 91       	ld	r25, X+
    37a0:	0d 90       	ld	r0, X+
    37a2:	bc 91       	ld	r27, X
    37a4:	a0 2d       	mov	r26, r0
    37a6:	48 17       	cp	r20, r24
    37a8:	59 07       	cpc	r21, r25
    37aa:	6a 07       	cpc	r22, r26
    37ac:	7b 07       	cpc	r23, r27
    37ae:	89 f0       	breq	.+34     	; 0x37d2 <_ZN5PS3BT7ACLDataEPh+0x4f6>
    37b0:	80 95       	com	r24
    37b2:	90 95       	com	r25
    37b4:	a0 95       	com	r26
    37b6:	b0 95       	com	r27
    37b8:	84 23       	and	r24, r20
    37ba:	95 23       	and	r25, r21
    37bc:	a6 23       	and	r26, r22
    37be:	b7 23       	and	r27, r23
    37c0:	e7 01       	movw	r28, r14
    37c2:	8f 8f       	std	Y+31, r24	; 0x1f
    37c4:	98 a3       	std	Y+32, r25	; 0x20
    37c6:	a9 a3       	std	Y+33, r26	; 0x21
    37c8:	ba a3       	std	Y+34, r27	; 0x22
    37ca:	4b 8f       	std	Y+27, r20	; 0x1b
    37cc:	5c 8f       	std	Y+28, r21	; 0x1c
    37ce:	6d 8f       	std	Y+29, r22	; 0x1d
    37d0:	7e 8f       	std	Y+30, r23	; 0x1e
    37d2:	c7 01       	movw	r24, r14
    37d4:	0e 94 77 18 	call	0x30ee	; 0x30ee <_ZN5PS3BT10L2CAP_taskEv>
    37d8:	16 c0       	rjmp	.+44     	; 0x3806 <_ZN5PS3BT7ACLDataEPh+0x52a>
    37da:	fb 01       	movw	r30, r22
    37dc:	7d 01       	movw	r14, r26
    37de:	9b 96       	adiw	r26, 0x2b	; 43
    37e0:	80 e4       	ldi	r24, 0x40	; 64
    37e2:	01 90       	ld	r0, Z+
    37e4:	0d 92       	st	X+, r0
    37e6:	8a 95       	dec	r24
    37e8:	e1 f7       	brne	.-8      	; 0x37e2 <_ZN5PS3BT7ACLDataEPh+0x506>
    37ea:	d7 01       	movw	r26, r14
    37ec:	d1 96       	adiw	r26, 0x31	; 49
    37ee:	9c 91       	ld	r25, X
    37f0:	d1 97       	sbiw	r26, 0x31	; 49
    37f2:	d2 96       	adiw	r26, 0x32	; 50
    37f4:	4c 91       	ld	r20, X
    37f6:	29 2f       	mov	r18, r25
    37f8:	30 e0       	ldi	r19, 0x00	; 0
    37fa:	34 2b       	or	r19, r20
    37fc:	21 30       	cpi	r18, 0x01	; 1
    37fe:	31 05       	cpc	r19, r1
    3800:	09 f0       	breq	.+2      	; 0x3804 <_ZN5PS3BT7ACLDataEPh+0x528>
    3802:	65 cf       	rjmp	.-310    	; 0x36ce <_ZN5PS3BT7ACLDataEPh+0x3f2>
    3804:	cf cd       	rjmp	.-1122   	; 0x33a4 <_ZN5PS3BT7ACLDataEPh+0xc8>
    3806:	df 91       	pop	r29
    3808:	cf 91       	pop	r28
    380a:	1f 91       	pop	r17
    380c:	0f 91       	pop	r16
    380e:	ff 90       	pop	r15
    3810:	ef 90       	pop	r14
    3812:	08 95       	ret

00003814 <_ZN5PS3BT11HID_CommandEPhh>:
    3814:	2f 92       	push	r2
    3816:	3f 92       	push	r3
    3818:	4f 92       	push	r4
    381a:	5f 92       	push	r5
    381c:	6f 92       	push	r6
    381e:	7f 92       	push	r7
    3820:	8f 92       	push	r8
    3822:	9f 92       	push	r9
    3824:	af 92       	push	r10
    3826:	bf 92       	push	r11
    3828:	cf 92       	push	r12
    382a:	df 92       	push	r13
    382c:	ef 92       	push	r14
    382e:	ff 92       	push	r15
    3830:	0f 93       	push	r16
    3832:	1f 93       	push	r17
    3834:	cf 93       	push	r28
    3836:	df 93       	push	r29
    3838:	ec 01       	movw	r28, r24
    383a:	5b 01       	movw	r10, r22
    383c:	14 2f       	mov	r17, r20
    383e:	0e 94 57 13 	call	0x26ae	; 0x26ae <_Z6millisv>
    3842:	22 2e       	mov	r2, r18
    3844:	33 2e       	mov	r3, r19
    3846:	44 2e       	mov	r4, r20
    3848:	55 2e       	mov	r5, r21
    384a:	cf a0       	ldd	r12, Y+39	; 0x27
    384c:	d8 a4       	ldd	r13, Y+40	; 0x28
    384e:	e9 a4       	ldd	r14, Y+41	; 0x29
    3850:	fa a4       	ldd	r15, Y+42	; 0x2a
    3852:	d2 01       	movw	r26, r4
    3854:	c1 01       	movw	r24, r2
    3856:	8c 19       	sub	r24, r12
    3858:	9d 09       	sbc	r25, r13
    385a:	ae 09       	sbc	r26, r14
    385c:	bf 09       	sbc	r27, r15
    385e:	87 39       	cpi	r24, 0x97	; 151
    3860:	91 05       	cpc	r25, r1
    3862:	a1 05       	cpc	r26, r1
    3864:	b1 05       	cpc	r27, r1
    3866:	5c f4       	brge	.+22     	; 0x387e <_ZN5PS3BT11HID_CommandEPhh+0x6a>
    3868:	0e 94 57 13 	call	0x26ae	; 0x26ae <_Z6millisv>
    386c:	22 2e       	mov	r2, r18
    386e:	33 2e       	mov	r3, r19
    3870:	c6 01       	movw	r24, r12
    3872:	8a 56       	subi	r24, 0x6A	; 106
    3874:	9f 4f       	sbci	r25, 0xFF	; 255
    3876:	82 19       	sub	r24, r2
    3878:	93 09       	sbc	r25, r3
    387a:	0e 94 68 13 	call	0x26d0	; 0x26d0 <_Z5delayj>
    387e:	de 01       	movw	r26, r28
    3880:	a0 53       	subi	r26, 0x30	; 48
    3882:	bf 4f       	sbci	r27, 0xFF	; 255
    3884:	fe 01       	movw	r30, r28
    3886:	e1 53       	subi	r30, 0x31	; 49
    3888:	ff 4f       	sbci	r31, 0xFF	; 255
    388a:	6e 81       	ldd	r22, Y+6	; 0x06
    388c:	7f 81       	ldd	r23, Y+7	; 0x07
    388e:	ec 90       	ld	r14, X
    3890:	00 81       	ld	r16, Z
    3892:	21 2f       	mov	r18, r17
    3894:	a5 01       	movw	r20, r10
    3896:	8c 81       	ldd	r24, Y+4	; 0x04
    3898:	9d 81       	ldd	r25, Y+5	; 0x05
    389a:	0e 94 ea 10 	call	0x21d4	; 0x21d4 <_ZN3BTD13L2CAP_CommandEjPhhhh>
    389e:	0e 94 57 13 	call	0x26ae	; 0x26ae <_Z6millisv>
    38a2:	2f a3       	std	Y+39, r18	; 0x27
    38a4:	38 a7       	std	Y+40, r19	; 0x28
    38a6:	49 a7       	std	Y+41, r20	; 0x29
    38a8:	5a a7       	std	Y+42, r21	; 0x2a
    38aa:	df 91       	pop	r29
    38ac:	cf 91       	pop	r28
    38ae:	1f 91       	pop	r17
    38b0:	0f 91       	pop	r16
    38b2:	ff 90       	pop	r15
    38b4:	ef 90       	pop	r14
    38b6:	df 90       	pop	r13
    38b8:	cf 90       	pop	r12
    38ba:	bf 90       	pop	r11
    38bc:	af 90       	pop	r10
    38be:	9f 90       	pop	r9
    38c0:	8f 90       	pop	r8
    38c2:	7f 90       	pop	r7
    38c4:	6f 90       	pop	r6
    38c6:	5f 90       	pop	r5
    38c8:	4f 90       	pop	r4
    38ca:	3f 90       	pop	r3
    38cc:	2f 90       	pop	r2
    38ce:	08 95       	ret

000038d0 <_ZN5PS3BT9setLedRawEh>:
    38d0:	fc 01       	movw	r30, r24
    38d2:	ea 58       	subi	r30, 0x8A	; 138
    38d4:	ff 4f       	sbci	r31, 0xFF	; 255
    38d6:	66 0f       	add	r22, r22
    38d8:	60 83       	st	Z, r22
    38da:	bc 01       	movw	r22, r24
    38dc:	65 59       	subi	r22, 0x95	; 149
    38de:	7f 4f       	sbci	r23, 0xFF	; 255
    38e0:	42 e3       	ldi	r20, 0x32	; 50
    38e2:	0e 94 0a 1c 	call	0x3814	; 0x3814 <_ZN5PS3BT11HID_CommandEPhh>
    38e6:	08 95       	ret

000038e8 <_ZN5PS3BT8setLedOnE7LEDEnum>:
    38e8:	61 11       	cpse	r22, r1
    38ea:	03 c0       	rjmp	.+6      	; 0x38f2 <_ZN5PS3BT8setLedOnE7LEDEnum+0xa>
    38ec:	0e 94 68 1c 	call	0x38d0	; 0x38d0 <_ZN5PS3BT9setLedRawEh>
    38f0:	08 95       	ret
    38f2:	e6 2f       	mov	r30, r22
    38f4:	f0 e0       	ldi	r31, 0x00	; 0
    38f6:	ee 57       	subi	r30, 0x7E	; 126
    38f8:	f3 4f       	sbci	r31, 0xF3	; 243
    38fa:	e4 91       	lpm	r30, Z
    38fc:	dc 01       	movw	r26, r24
    38fe:	aa 58       	subi	r26, 0x8A	; 138
    3900:	bf 4f       	sbci	r27, 0xFF	; 255
    3902:	ef 70       	andi	r30, 0x0F	; 15
    3904:	ee 0f       	add	r30, r30
    3906:	2c 91       	ld	r18, X
    3908:	e2 2b       	or	r30, r18
    390a:	ec 93       	st	X, r30
    390c:	bc 01       	movw	r22, r24
    390e:	65 59       	subi	r22, 0x95	; 149
    3910:	7f 4f       	sbci	r23, 0xFF	; 255
    3912:	42 e3       	ldi	r20, 0x32	; 50
    3914:	0e 94 0a 1c 	call	0x3814	; 0x3814 <_ZN5PS3BT11HID_CommandEPhh>
    3918:	08 95       	ret

0000391a <_ZN5PS3BT14enable_sixaxisEv>:
}

void PS3BT::enable_sixaxis() { // Command used to enable the Dualshock 3 and Navigation controller to send data via Bluetooth
    391a:	cf 93       	push	r28
    391c:	df 93       	push	r29
    391e:	00 d0       	rcall	.+0      	; 0x3920 <_ZN5PS3BT14enable_sixaxisEv+0x6>
    3920:	00 d0       	rcall	.+0      	; 0x3922 <_ZN5PS3BT14enable_sixaxisEv+0x8>
    3922:	00 d0       	rcall	.+0      	; 0x3924 <_ZN5PS3BT14enable_sixaxisEv+0xa>
    3924:	cd b7       	in	r28, 0x3d	; 61
    3926:	de b7       	in	r29, 0x3e	; 62
        uint8_t cmd_buf[6];
        cmd_buf[0] = 0x53; // HID BT Set_report (0x50) | Report Type (Feature 0x03)
    3928:	23 e5       	ldi	r18, 0x53	; 83
    392a:	29 83       	std	Y+1, r18	; 0x01
        cmd_buf[1] = 0xF4; // Report ID
    392c:	24 ef       	ldi	r18, 0xF4	; 244
    392e:	2a 83       	std	Y+2, r18	; 0x02
        cmd_buf[2] = 0x42; // Special PS3 Controller enable commands
    3930:	22 e4       	ldi	r18, 0x42	; 66
    3932:	2b 83       	std	Y+3, r18	; 0x03
        cmd_buf[3] = 0x03;
    3934:	23 e0       	ldi	r18, 0x03	; 3
    3936:	2c 83       	std	Y+4, r18	; 0x04
        cmd_buf[4] = 0x00;
    3938:	1d 82       	std	Y+5, r1	; 0x05
        cmd_buf[5] = 0x00;
    393a:	1e 82       	std	Y+6, r1	; 0x06

        HID_Command(cmd_buf, 6);
    393c:	46 e0       	ldi	r20, 0x06	; 6
    393e:	be 01       	movw	r22, r28
    3940:	6f 5f       	subi	r22, 0xFF	; 255
    3942:	7f 4f       	sbci	r23, 0xFF	; 255
    3944:	0e 94 0a 1c 	call	0x3814	; 0x3814 <_ZN5PS3BT11HID_CommandEPhh>
}
    3948:	26 96       	adiw	r28, 0x06	; 6
    394a:	0f b6       	in	r0, 0x3f	; 63
    394c:	f8 94       	cli
    394e:	de bf       	out	0x3e, r29	; 62
    3950:	0f be       	out	0x3f, r0	; 63
    3952:	cd bf       	out	0x3d, r28	; 61
    3954:	df 91       	pop	r29
    3956:	cf 91       	pop	r28
    3958:	08 95       	ret

0000395a <_ZN5PS3BT15HIDMove_CommandEPhh>:

// Playstation Move Controller commands

void PS3BT::HIDMove_Command(uint8_t* data, uint8_t nbytes) {
    395a:	2f 92       	push	r2
    395c:	3f 92       	push	r3
    395e:	4f 92       	push	r4
    3960:	5f 92       	push	r5
    3962:	6f 92       	push	r6
    3964:	7f 92       	push	r7
    3966:	8f 92       	push	r8
    3968:	9f 92       	push	r9
    396a:	af 92       	push	r10
    396c:	bf 92       	push	r11
    396e:	cf 92       	push	r12
    3970:	df 92       	push	r13
    3972:	ef 92       	push	r14
    3974:	ff 92       	push	r15
    3976:	0f 93       	push	r16
    3978:	1f 93       	push	r17
    397a:	cf 93       	push	r28
    397c:	df 93       	push	r29
    397e:	ec 01       	movw	r28, r24
    3980:	5b 01       	movw	r10, r22
    3982:	14 2f       	mov	r17, r20
        if((int32_t)((uint32_t)millis() - timerHID) <= 150)// Check if is has been less than 150ms since last command
    3984:	0e 94 57 13 	call	0x26ae	; 0x26ae <_Z6millisv>
    3988:	22 2e       	mov	r2, r18
    398a:	33 2e       	mov	r3, r19
    398c:	44 2e       	mov	r4, r20
    398e:	55 2e       	mov	r5, r21
    3990:	cf a0       	ldd	r12, Y+39	; 0x27
    3992:	d8 a4       	ldd	r13, Y+40	; 0x28
    3994:	e9 a4       	ldd	r14, Y+41	; 0x29
    3996:	fa a4       	ldd	r15, Y+42	; 0x2a
    3998:	d2 01       	movw	r26, r4
    399a:	c1 01       	movw	r24, r2
    399c:	8c 19       	sub	r24, r12
    399e:	9d 09       	sbc	r25, r13
    39a0:	ae 09       	sbc	r26, r14
    39a2:	bf 09       	sbc	r27, r15
    39a4:	87 39       	cpi	r24, 0x97	; 151
    39a6:	91 05       	cpc	r25, r1
    39a8:	a1 05       	cpc	r26, r1
    39aa:	b1 05       	cpc	r27, r1
    39ac:	5c f4       	brge	.+22     	; 0x39c4 <_ZN5PS3BT15HIDMove_CommandEPhh+0x6a>
                delay((uint32_t)(150 - ((uint32_t)millis() - timerHID))); // There have to be a delay between commands
    39ae:	0e 94 57 13 	call	0x26ae	; 0x26ae <_Z6millisv>
    39b2:	22 2e       	mov	r2, r18
    39b4:	33 2e       	mov	r3, r19
    39b6:	c6 01       	movw	r24, r12
    39b8:	8a 56       	subi	r24, 0x6A	; 106
    39ba:	9f 4f       	sbci	r25, 0xFF	; 255
    39bc:	82 19       	sub	r24, r2
    39be:	93 09       	sbc	r25, r3
    39c0:	0e 94 68 13 	call	0x26d0	; 0x26d0 <_Z5delayj>
        pBtd->L2CAP_Command(hci_handle, data, nbytes, interrupt_scid[0], interrupt_scid[1]); // The Move controller sends it's data via the intterrupt channel
    39c4:	de 01       	movw	r26, r28
    39c6:	ac 52       	subi	r26, 0x2C	; 44
    39c8:	bf 4f       	sbci	r27, 0xFF	; 255
    39ca:	fe 01       	movw	r30, r28
    39cc:	ed 52       	subi	r30, 0x2D	; 45
    39ce:	ff 4f       	sbci	r31, 0xFF	; 255
    39d0:	6e 81       	ldd	r22, Y+6	; 0x06
    39d2:	7f 81       	ldd	r23, Y+7	; 0x07
    39d4:	ec 90       	ld	r14, X
    39d6:	00 81       	ld	r16, Z
    39d8:	21 2f       	mov	r18, r17
    39da:	a5 01       	movw	r20, r10
    39dc:	8c 81       	ldd	r24, Y+4	; 0x04
    39de:	9d 81       	ldd	r25, Y+5	; 0x05
    39e0:	0e 94 ea 10 	call	0x21d4	; 0x21d4 <_ZN3BTD13L2CAP_CommandEjPhhhh>
        timerHID = (uint32_t)millis();
    39e4:	0e 94 57 13 	call	0x26ae	; 0x26ae <_Z6millisv>
    39e8:	2f a3       	std	Y+39, r18	; 0x27
    39ea:	38 a7       	std	Y+40, r19	; 0x28
    39ec:	49 a7       	std	Y+41, r20	; 0x29
    39ee:	5a a7       	std	Y+42, r21	; 0x2a
}
    39f0:	df 91       	pop	r29
    39f2:	cf 91       	pop	r28
    39f4:	1f 91       	pop	r17
    39f6:	0f 91       	pop	r16
    39f8:	ff 90       	pop	r15
    39fa:	ef 90       	pop	r14
    39fc:	df 90       	pop	r13
    39fe:	cf 90       	pop	r12
    3a00:	bf 90       	pop	r11
    3a02:	af 90       	pop	r10
    3a04:	9f 90       	pop	r9
    3a06:	8f 90       	pop	r8
    3a08:	7f 90       	pop	r7
    3a0a:	6f 90       	pop	r6
    3a0c:	5f 90       	pop	r5
    3a0e:	4f 90       	pop	r4
    3a10:	3f 90       	pop	r3
    3a12:	2f 90       	pop	r2
    3a14:	08 95       	ret

00003a16 <_ZN5PS3BT3RunEv>:
                        }
                        break;				
        }
}

void PS3BT::Run() {
    3a16:	8f 92       	push	r8
    3a18:	9f 92       	push	r9
    3a1a:	af 92       	push	r10
    3a1c:	bf 92       	push	r11
    3a1e:	cf 92       	push	r12
    3a20:	df 92       	push	r13
    3a22:	ef 92       	push	r14
    3a24:	ff 92       	push	r15
    3a26:	cf 93       	push	r28
    3a28:	df 93       	push	r29
    3a2a:	ec 01       	movw	r28, r24
        switch(l2cap_state) {
    3a2c:	8a 89       	ldd	r24, Y+18	; 0x12
    3a2e:	81 31       	cpi	r24, 0x11	; 17
    3a30:	09 f4       	brne	.+2      	; 0x3a34 <_ZN5PS3BT3RunEv+0x1e>
    3a32:	3f c0       	rjmp	.+126    	; 0x3ab2 <_ZN5PS3BT3RunEv+0x9c>
    3a34:	82 31       	cpi	r24, 0x12	; 18
    3a36:	21 f0       	breq	.+8      	; 0x3a40 <_ZN5PS3BT3RunEv+0x2a>
    3a38:	81 30       	cpi	r24, 0x01	; 1
    3a3a:	09 f0       	breq	.+2      	; 0x3a3e <_ZN5PS3BT3RunEv+0x28>
    3a3c:	be c0       	rjmp	.+380    	; 0x3bba <_ZN5PS3BT3RunEv+0x1a4>
    3a3e:	98 c0       	rjmp	.+304    	; 0x3b70 <_ZN5PS3BT3RunEv+0x15a>
                case PS3_ENABLE_SIXAXIS:
                        if((int32_t)((uint32_t)millis() - timer) > 100) { // loop 1 second before sending the command
    3a40:	0e 94 57 13 	call	0x26ae	; 0x26ae <_Z6millisv>
    3a44:	82 2e       	mov	r8, r18
    3a46:	93 2e       	mov	r9, r19
    3a48:	a4 2e       	mov	r10, r20
    3a4a:	b5 2e       	mov	r11, r21
    3a4c:	8b a1       	ldd	r24, Y+35	; 0x23
    3a4e:	9c a1       	ldd	r25, Y+36	; 0x24
    3a50:	ad a1       	ldd	r26, Y+37	; 0x25
    3a52:	be a1       	ldd	r27, Y+38	; 0x26
    3a54:	88 1a       	sub	r8, r24
    3a56:	99 0a       	sbc	r9, r25
    3a58:	aa 0a       	sbc	r10, r26
    3a5a:	bb 0a       	sbc	r11, r27
    3a5c:	85 e6       	ldi	r24, 0x65	; 101
    3a5e:	88 16       	cp	r8, r24
    3a60:	91 04       	cpc	r9, r1
    3a62:	a1 04       	cpc	r10, r1
    3a64:	b1 04       	cpc	r11, r1
    3a66:	0c f4       	brge	.+2      	; 0x3a6a <_ZN5PS3BT3RunEv+0x54>
    3a68:	a8 c0       	rjmp	.+336    	; 0x3bba <_ZN5PS3BT3RunEv+0x1a4>
								delay(10);
    3a6a:	8a e0       	ldi	r24, 0x0A	; 10
    3a6c:	90 e0       	ldi	r25, 0x00	; 0
    3a6e:	0e 94 68 13 	call	0x26d0	; 0x26d0 <_Z5delayj>
								printStringCRNL1("In1");
    3a72:	8e e2       	ldi	r24, 0x2E	; 46
    3a74:	92 e0       	ldi	r25, 0x02	; 2
    3a76:	0e 94 03 13 	call	0x2606	; 0x2606 <_Z16printStringCRNL1PKc>
								delay(10);
    3a7a:	8a e0       	ldi	r24, 0x0A	; 10
    3a7c:	90 e0       	ldi	r25, 0x00	; 0
    3a7e:	0e 94 68 13 	call	0x26d0	; 0x26d0 <_Z5delayj>
                                memset(l2capinbuf, 0, BULK_MAXPKTSIZE); // Reset l2cap in buffer as it sometimes read it as a button has been pressed
    3a82:	fe 01       	movw	r30, r28
    3a84:	bb 96       	adiw	r30, 0x2b	; 43
    3a86:	80 e4       	ldi	r24, 0x40	; 64
    3a88:	df 01       	movw	r26, r30
    3a8a:	1d 92       	st	X+, r1
    3a8c:	8a 95       	dec	r24
    3a8e:	e9 f7       	brne	.-6      	; 0x3a8a <_ZN5PS3BT3RunEv+0x74>
                                for(uint8_t i = 15; i < 19; i++)
                                        l2capinbuf[i] = 0x7F; // Set the analog joystick values to center position
    3a90:	8f e7       	ldi	r24, 0x7F	; 127
    3a92:	8a af       	std	Y+58, r24	; 0x3a
    3a94:	8b af       	std	Y+59, r24	; 0x3b
    3a96:	8c af       	std	Y+60, r24	; 0x3c
    3a98:	8d af       	std	Y+61, r24	; 0x3d
                                enable_sixaxis();
    3a9a:	ce 01       	movw	r24, r28
    3a9c:	0e 94 8d 1c 	call	0x391a	; 0x391a <_ZN5PS3BT14enable_sixaxisEv>
                                l2cap_state = TURN_ON_LED;
    3aa0:	81 e1       	ldi	r24, 0x11	; 17
    3aa2:	8a 8b       	std	Y+18, r24	; 0x12
                                timer = (uint32_t)millis();
    3aa4:	0e 94 57 13 	call	0x26ae	; 0x26ae <_Z6millisv>
    3aa8:	2b a3       	std	Y+35, r18	; 0x23
    3aaa:	3c a3       	std	Y+36, r19	; 0x24
    3aac:	4d a3       	std	Y+37, r20	; 0x25
    3aae:	5e a3       	std	Y+38, r21	; 0x26
    3ab0:	84 c0       	rjmp	.+264    	; 0x3bba <_ZN5PS3BT3RunEv+0x1a4>
                        }
                        break;

                case TURN_ON_LED:
                        if((int32_t)((uint32_t)millis() - timer) > 1000) { // loop 1 second before sending the command
    3ab2:	0e 94 57 13 	call	0x26ae	; 0x26ae <_Z6millisv>
    3ab6:	82 2e       	mov	r8, r18
    3ab8:	93 2e       	mov	r9, r19
    3aba:	a4 2e       	mov	r10, r20
    3abc:	b5 2e       	mov	r11, r21
    3abe:	8b a1       	ldd	r24, Y+35	; 0x23
    3ac0:	9c a1       	ldd	r25, Y+36	; 0x24
    3ac2:	ad a1       	ldd	r26, Y+37	; 0x25
    3ac4:	be a1       	ldd	r27, Y+38	; 0x26
    3ac6:	88 1a       	sub	r8, r24
    3ac8:	99 0a       	sbc	r9, r25
    3aca:	aa 0a       	sbc	r10, r26
    3acc:	bb 0a       	sbc	r11, r27
    3ace:	b9 ee       	ldi	r27, 0xE9	; 233
    3ad0:	8b 16       	cp	r8, r27
    3ad2:	b3 e0       	ldi	r27, 0x03	; 3
    3ad4:	9b 06       	cpc	r9, r27
    3ad6:	a1 04       	cpc	r10, r1
    3ad8:	b1 04       	cpc	r11, r1
    3ada:	0c f4       	brge	.+2      	; 0x3ade <_ZN5PS3BT3RunEv+0xc8>
    3adc:	6e c0       	rjmp	.+220    	; 0x3bba <_ZN5PS3BT3RunEv+0x1a4>
                                if(remote_name_first == 'P') { // First letter in PLAYSTATION(R)3 Controller ('P')
    3ade:	88 89       	ldd	r24, Y+16	; 0x10
    3ae0:	80 35       	cpi	r24, 0x50	; 80
    3ae2:	61 f4       	brne	.+24     	; 0x3afc <_ZN5PS3BT3RunEv+0xe6>
#ifdef DEBUG_UART_HOST
										delay(10);
    3ae4:	8a e0       	ldi	r24, 0x0A	; 10
    3ae6:	90 e0       	ldi	r25, 0x00	; 0
    3ae8:	0e 94 68 13 	call	0x26d0	; 0x26d0 <_Z5delayj>
										
                                        Notify(PSTR("\r\nDualshock 3 Controller Enabled\r\n"), 0x80);
    3aec:	60 e8       	ldi	r22, 0x80	; 128
    3aee:	86 ed       	ldi	r24, 0xD6	; 214
    3af0:	99 e0       	ldi	r25, 0x09	; 9
    3af2:	0e 94 27 13 	call	0x264e	; 0x264e <_Z6NotifyPKch>
#endif									
                                        PS3Connected = true;
    3af6:	81 e0       	ldi	r24, 0x01	; 1
    3af8:	8d 87       	std	Y+13, r24	; 0x0d
    3afa:	19 c0       	rjmp	.+50     	; 0x3b2e <_ZN5PS3BT3RunEv+0x118>
                                } else if(remote_name_first == 'N') { // First letter in Navigation Controller ('N')
    3afc:	8e 34       	cpi	r24, 0x4E	; 78
    3afe:	41 f4       	brne	.+16     	; 0x3b10 <_ZN5PS3BT3RunEv+0xfa>
#ifdef DEBUG_UART_HOST
                                        Notify(PSTR("\r\nNavigation Controller Enabled\r\n"), 0x80);
    3b00:	60 e8       	ldi	r22, 0x80	; 128
    3b02:	84 eb       	ldi	r24, 0xB4	; 180
    3b04:	99 e0       	ldi	r25, 0x09	; 9
    3b06:	0e 94 27 13 	call	0x264e	; 0x264e <_Z6NotifyPKch>
#endif
                                        PS3NavigationConnected = true;
    3b0a:	81 e0       	ldi	r24, 0x01	; 1
    3b0c:	8f 87       	std	Y+15, r24	; 0x0f
    3b0e:	0f c0       	rjmp	.+30     	; 0x3b2e <_ZN5PS3BT3RunEv+0x118>
                                } else if(remote_name_first == 'M') { // First letter in Motion Controller ('M')
    3b10:	8d 34       	cpi	r24, 0x4D	; 77
    3b12:	69 f4       	brne	.+26     	; 0x3b2e <_ZN5PS3BT3RunEv+0x118>
                                        timer = (uint32_t)millis();
    3b14:	0e 94 57 13 	call	0x26ae	; 0x26ae <_Z6millisv>
    3b18:	2b a3       	std	Y+35, r18	; 0x23
    3b1a:	3c a3       	std	Y+36, r19	; 0x24
    3b1c:	4d a3       	std	Y+37, r20	; 0x25
    3b1e:	5e a3       	std	Y+38, r21	; 0x26
#ifdef DEBUG_UART_HOST
                                        Notify(PSTR("\r\nMotion Controller Enabled\r\n"), 0x80);
    3b20:	60 e8       	ldi	r22, 0x80	; 128
    3b22:	86 e9       	ldi	r24, 0x96	; 150
    3b24:	99 e0       	ldi	r25, 0x09	; 9
    3b26:	0e 94 27 13 	call	0x264e	; 0x264e <_Z6NotifyPKch>
#endif
										PS3MoveConnected = true;
    3b2a:	81 e0       	ldi	r24, 0x01	; 1
    3b2c:	8e 87       	std	Y+14, r24	; 0x0e
                                }
                                ButtonState = 0; // Clear all values
    3b2e:	1f 8a       	std	Y+23, r1	; 0x17
    3b30:	18 8e       	std	Y+24, r1	; 0x18
    3b32:	19 8e       	std	Y+25, r1	; 0x19
    3b34:	1a 8e       	std	Y+26, r1	; 0x1a
                                OldButtonState = 0;
    3b36:	1b 8e       	std	Y+27, r1	; 0x1b
    3b38:	1c 8e       	std	Y+28, r1	; 0x1c
    3b3a:	1d 8e       	std	Y+29, r1	; 0x1d
    3b3c:	1e 8e       	std	Y+30, r1	; 0x1e
                                ButtonClickState = 0;
    3b3e:	1f 8e       	std	Y+31, r1	; 0x1f
    3b40:	18 a2       	std	Y+32, r1	; 0x20
    3b42:	19 a2       	std	Y+33, r1	; 0x21
    3b44:	1a a2       	std	Y+34, r1	; 0x22
								pBtd->pollInterval = 500;
    3b46:	ec 81       	ldd	r30, Y+4	; 0x04
    3b48:	fd 81       	ldd	r31, Y+5	; 0x05
    3b4a:	e8 5b       	subi	r30, 0xB8	; 184
    3b4c:	ff 4f       	sbci	r31, 0xFF	; 255
    3b4e:	84 ef       	ldi	r24, 0xF4	; 244
    3b50:	80 83       	st	Z, r24
								USART1_Disable();
    3b52:	0e 94 d0 12 	call	0x25a0	; 0x25a0 <_Z14USART1_Disablev>
								Init_Motor();
    3b56:	0e 94 29 16 	call	0x2c52	; 0x2c52 <_Z10Init_Motorv>
                                setLedOn(LED1); // Turn on the LED on the controller
    3b5a:	61 e0       	ldi	r22, 0x01	; 1
    3b5c:	ce 01       	movw	r24, r28
    3b5e:	0e 94 74 1c 	call	0x38e8	; 0x38e8 <_ZN5PS3BT8setLedOnE7LEDEnum>
                                l2cap_state = L2CAP_DONE;
    3b62:	81 e0       	ldi	r24, 0x01	; 1
    3b64:	8a 8b       	std	Y+18, r24	; 0x12
								setIndicatorCount(8);
    3b66:	88 e0       	ldi	r24, 0x08	; 8
    3b68:	90 e0       	ldi	r25, 0x00	; 0
    3b6a:	0e 94 ce 13 	call	0x279c	; 0x279c <_Z17setIndicatorCountj>
    3b6e:	25 c0       	rjmp	.+74     	; 0x3bba <_ZN5PS3BT3RunEv+0x1a4>
                        }
                        break;

                case L2CAP_DONE:
                        if(PS3MoveConnected) { // The Bulb and rumble values, has to be send at approximately every 5th second for it to stay on
    3b70:	8e 85       	ldd	r24, Y+14	; 0x0e
    3b72:	88 23       	and	r24, r24
    3b74:	11 f1       	breq	.+68     	; 0x3bba <_ZN5PS3BT3RunEv+0x1a4>
                                if((int32_t)((uint32_t)millis() - timer) > 4000) { // Send at least every 4th second
    3b76:	0e 94 57 13 	call	0x26ae	; 0x26ae <_Z6millisv>
    3b7a:	82 2e       	mov	r8, r18
    3b7c:	93 2e       	mov	r9, r19
    3b7e:	a4 2e       	mov	r10, r20
    3b80:	b5 2e       	mov	r11, r21
    3b82:	8b a1       	ldd	r24, Y+35	; 0x23
    3b84:	9c a1       	ldd	r25, Y+36	; 0x24
    3b86:	ad a1       	ldd	r26, Y+37	; 0x25
    3b88:	be a1       	ldd	r27, Y+38	; 0x26
    3b8a:	88 1a       	sub	r8, r24
    3b8c:	99 0a       	sbc	r9, r25
    3b8e:	aa 0a       	sbc	r10, r26
    3b90:	bb 0a       	sbc	r11, r27
    3b92:	81 ea       	ldi	r24, 0xA1	; 161
    3b94:	88 16       	cp	r8, r24
    3b96:	8f e0       	ldi	r24, 0x0F	; 15
    3b98:	98 06       	cpc	r9, r24
    3b9a:	a1 04       	cpc	r10, r1
    3b9c:	b1 04       	cpc	r11, r1
    3b9e:	6c f0       	brlt	.+26     	; 0x3bba <_ZN5PS3BT3RunEv+0x1a4>
                                        HIDMove_Command(HIDMoveBuffer, HID_BUFFERSIZE); // The Bulb and rumble values, has to be written again and again, for it to stay turned on
    3ba0:	be 01       	movw	r22, r28
    3ba2:	63 56       	subi	r22, 0x63	; 99
    3ba4:	7f 4f       	sbci	r23, 0xFF	; 255
    3ba6:	42 e3       	ldi	r20, 0x32	; 50
    3ba8:	ce 01       	movw	r24, r28
    3baa:	0e 94 ad 1c 	call	0x395a	; 0x395a <_ZN5PS3BT15HIDMove_CommandEPhh>
                                        timer = (uint32_t)millis();
    3bae:	0e 94 57 13 	call	0x26ae	; 0x26ae <_Z6millisv>
    3bb2:	2b a3       	std	Y+35, r18	; 0x23
    3bb4:	3c a3       	std	Y+36, r19	; 0x24
    3bb6:	4d a3       	std	Y+37, r20	; 0x25
    3bb8:	5e a3       	std	Y+38, r21	; 0x26
                                }
                        }
                        break;
        }
}
    3bba:	df 91       	pop	r29
    3bbc:	cf 91       	pop	r28
    3bbe:	ff 90       	pop	r15
    3bc0:	ef 90       	pop	r14
    3bc2:	df 90       	pop	r13
    3bc4:	cf 90       	pop	r12
    3bc6:	bf 90       	pop	r11
    3bc8:	af 90       	pop	r10
    3bca:	9f 90       	pop	r9
    3bcc:	8f 90       	pop	r8
    3bce:	08 95       	ret

00003bd0 <_ZN5PS3BT11moveSetBulbEhhh>:
        timerHID = (uint32_t)millis();
}

void PS3BT::moveSetBulb(uint8_t r, uint8_t g, uint8_t b) { // Use this to set the Color using RGB values
        // Set the Bulb's values into the write buffer
        HIDMoveBuffer[3] = r;
    3bd0:	fc 01       	movw	r30, r24
    3bd2:	e0 56       	subi	r30, 0x60	; 96
    3bd4:	ff 4f       	sbci	r31, 0xFF	; 255
    3bd6:	60 83       	st	Z, r22
        HIDMoveBuffer[4] = g;
    3bd8:	31 96       	adiw	r30, 0x01	; 1
    3bda:	40 83       	st	Z, r20
        HIDMoveBuffer[5] = b;
    3bdc:	31 96       	adiw	r30, 0x01	; 1
    3bde:	20 83       	st	Z, r18

        HIDMove_Command(HIDMoveBuffer, HID_BUFFERSIZE);
    3be0:	bc 01       	movw	r22, r24
    3be2:	63 56       	subi	r22, 0x63	; 99
    3be4:	7f 4f       	sbci	r23, 0xFF	; 255
    3be6:	42 e3       	ldi	r20, 0x32	; 50
    3be8:	0e 94 ad 1c 	call	0x395a	; 0x395a <_ZN5PS3BT15HIDMove_CommandEPhh>
    3bec:	08 95       	ret

00003bee <_ZN5PS3BT11moveSetBulbE10ColorsEnum>:
}

void PS3BT::moveSetBulb(ColorsEnum color) { // Use this to set the Color using the predefined colors in enum
    3bee:	cf 92       	push	r12
    3bf0:	df 92       	push	r13
    3bf2:	ef 92       	push	r14
    3bf4:	ff 92       	push	r15
    3bf6:	0f 93       	push	r16
    3bf8:	1f 93       	push	r17
    3bfa:	e4 2f       	mov	r30, r20
        moveSetBulb((uint8_t)(color >> 16), (uint8_t)(color >> 8), (uint8_t)(color));
    3bfc:	04 2f       	mov	r16, r20
    3bfe:	15 2f       	mov	r17, r21
    3c00:	26 2f       	mov	r18, r22
    3c02:	37 2f       	mov	r19, r23
    3c04:	77 27       	eor	r23, r23
    3c06:	37 fd       	sbrc	r19, 7
    3c08:	7a 95       	dec	r23
    3c0a:	63 2f       	mov	r22, r19
    3c0c:	52 2f       	mov	r21, r18
    3c0e:	41 2f       	mov	r20, r17
    3c10:	69 01       	movw	r12, r18
    3c12:	ff 24       	eor	r15, r15
    3c14:	d7 fc       	sbrc	r13, 7
    3c16:	f0 94       	com	r15
    3c18:	ef 2c       	mov	r14, r15
    3c1a:	2e 2f       	mov	r18, r30
    3c1c:	6c 2d       	mov	r22, r12
    3c1e:	0e 94 e8 1d 	call	0x3bd0	; 0x3bd0 <_ZN5PS3BT11moveSetBulbEhhh>
}
    3c22:	1f 91       	pop	r17
    3c24:	0f 91       	pop	r16
    3c26:	ff 90       	pop	r15
    3c28:	ef 90       	pop	r14
    3c2a:	df 90       	pop	r13
    3c2c:	cf 90       	pop	r12
    3c2e:	08 95       	ret

00003c30 <_ZN5PS3BT6onInitEv>:

        HIDMove_Command(HIDMoveBuffer, HID_BUFFERSIZE);
}

void PS3BT::onInit() {
        if(pFuncOnInit)
    3c30:	dc 01       	movw	r26, r24
    3c32:	12 96       	adiw	r26, 0x02	; 2
    3c34:	ed 91       	ld	r30, X+
    3c36:	fc 91       	ld	r31, X
    3c38:	13 97       	sbiw	r26, 0x03	; 3
    3c3a:	30 97       	sbiw	r30, 0x00	; 0
    3c3c:	11 f0       	breq	.+4      	; 0x3c42 <_ZN5PS3BT6onInitEv+0x12>
                pFuncOnInit(); // Call the user function
    3c3e:	09 95       	icall
    3c40:	08 95       	ret
        else {
                if(PS3MoveConnected)
    3c42:	fc 01       	movw	r30, r24
    3c44:	26 85       	ldd	r18, Z+14	; 0x0e
    3c46:	22 23       	and	r18, r18
    3c48:	39 f0       	breq	.+14     	; 0x3c58 <_ZN5PS3BT6onInitEv+0x28>
                        moveSetBulb(Red);
    3c4a:	40 e0       	ldi	r20, 0x00	; 0
    3c4c:	50 e0       	ldi	r21, 0x00	; 0
    3c4e:	6f ef       	ldi	r22, 0xFF	; 255
    3c50:	70 e0       	ldi	r23, 0x00	; 0
    3c52:	0e 94 f7 1d 	call	0x3bee	; 0x3bee <_ZN5PS3BT11moveSetBulbE10ColorsEnum>
    3c56:	08 95       	ret
                else // Dualshock 3 or Navigation controller
                        setLedOn(static_cast<LEDEnum>(LED1));
    3c58:	61 e0       	ldi	r22, 0x01	; 1
    3c5a:	0e 94 74 1c 	call	0x38e8	; 0x38e8 <_ZN5PS3BT8setLedOnE7LEDEnum>
    3c5e:	08 95       	ret

00003c60 <__tablejump2__>:
    3c60:	ee 0f       	add	r30, r30
    3c62:	ff 1f       	adc	r31, r31
    3c64:	05 90       	lpm	r0, Z+
    3c66:	f4 91       	lpm	r31, Z
    3c68:	e0 2d       	mov	r30, r0
    3c6a:	09 94       	ijmp

00003c6c <__adddi3>:
    3c6c:	2a 0d       	add	r18, r10
    3c6e:	3b 1d       	adc	r19, r11
    3c70:	4c 1d       	adc	r20, r12
    3c72:	5d 1d       	adc	r21, r13
    3c74:	6e 1d       	adc	r22, r14
    3c76:	7f 1d       	adc	r23, r15
    3c78:	80 1f       	adc	r24, r16
    3c7a:	91 1f       	adc	r25, r17
    3c7c:	08 95       	ret

00003c7e <__adddi3_s8>:
    3c7e:	00 24       	eor	r0, r0
    3c80:	a7 fd       	sbrc	r26, 7
    3c82:	00 94       	com	r0
    3c84:	2a 0f       	add	r18, r26
    3c86:	30 1d       	adc	r19, r0
    3c88:	40 1d       	adc	r20, r0
    3c8a:	50 1d       	adc	r21, r0
    3c8c:	60 1d       	adc	r22, r0
    3c8e:	70 1d       	adc	r23, r0
    3c90:	80 1d       	adc	r24, r0
    3c92:	90 1d       	adc	r25, r0
    3c94:	08 95       	ret

00003c96 <__subdi3>:
    3c96:	2a 19       	sub	r18, r10
    3c98:	3b 09       	sbc	r19, r11
    3c9a:	4c 09       	sbc	r20, r12
    3c9c:	5d 09       	sbc	r21, r13
    3c9e:	6e 09       	sbc	r22, r14
    3ca0:	7f 09       	sbc	r23, r15
    3ca2:	80 0b       	sbc	r24, r16
    3ca4:	91 0b       	sbc	r25, r17
    3ca6:	08 95       	ret

00003ca8 <__cmpdi2>:
    3ca8:	2a 15       	cp	r18, r10
    3caa:	3b 05       	cpc	r19, r11
    3cac:	4c 05       	cpc	r20, r12
    3cae:	5d 05       	cpc	r21, r13
    3cb0:	6e 05       	cpc	r22, r14
    3cb2:	7f 05       	cpc	r23, r15
    3cb4:	80 07       	cpc	r24, r16
    3cb6:	91 07       	cpc	r25, r17
    3cb8:	08 95       	ret

00003cba <strncmp>:
    3cba:	fb 01       	movw	r30, r22
    3cbc:	dc 01       	movw	r26, r24
    3cbe:	41 50       	subi	r20, 0x01	; 1
    3cc0:	50 40       	sbci	r21, 0x00	; 0
    3cc2:	30 f0       	brcs	.+12     	; 0x3cd0 <strncmp+0x16>
    3cc4:	8d 91       	ld	r24, X+
    3cc6:	01 90       	ld	r0, Z+
    3cc8:	80 19       	sub	r24, r0
    3cca:	19 f4       	brne	.+6      	; 0x3cd2 <strncmp+0x18>
    3ccc:	00 20       	and	r0, r0
    3cce:	b9 f7       	brne	.-18     	; 0x3cbe <strncmp+0x4>
    3cd0:	88 1b       	sub	r24, r24
    3cd2:	99 0b       	sbc	r25, r25
    3cd4:	08 95       	ret

00003cd6 <_exit>:
    3cd6:	f8 94       	cli

00003cd8 <__stop_program>:
    3cd8:	ff cf       	rjmp	.-2      	; 0x3cd8 <__stop_program>
